ccopy_reg
_reconstructor
p0
(cFWCore.ParameterSet.Config
Process
p1
c__builtin__
object
p2
Ntp3
Rp4
(dp5
V_Process__name
p6
VHiForest
p7
sV_Process__filters
p8
(dp9
sV_Process__producers
p10
(dp11
VrandomEngineStateProducer
p12
g0
(cFWCore.ParameterSet.Modules
EDProducer
p13
g2
Ntp14
Rp15
(dp16
V_TypedParameterizable__type
p17
VRandomEngineStateProducer
p18
sV_Parameterizable__parameterNames
p19
(lp20
sV_isFrozen
p21
I00
sV_Parameterizable__validator
p22
NsV_isModified
p23
I00
sV_filename
p24
V/cvmfs/cms.cern.ch/slc7_amd64_gcc10/cms/cmssw/CMSSW_12_4_9/python/IOMC/RandomEngine/IOMC_cff.py
p25
sV_lineNumber
p26
I172
sV_Labelable__label
p27
g12
sbsVcalibratedElectrons
p28
g0
(g13
g2
Ntp29
Rp30
(dp31
g17
VCalibratedElectronProducer
p32
sg19
(lp33
VminEtToCalibrate
p34
aVsemiDeterministic
p35
aVcorrectionFile
p36
aVrecHitCollectionEB
p37
aVrecHitCollectionEE
p38
aVproduceCalibratedObjs
p39
aVsrc
p40
aVepCombConfig
p41
aVvalueMapsStored
p42
aVmightGet
p43
asg21
I00
sg22
Nsg34
g0
(cFWCore.ParameterSet.Types
double
p44
g2
Ntp45
Rp46
(dp47
g21
I00
sV_ParameterTypeBase__isTracked
p48
I01
sg23
I00
sV_value
p49
F5.0
sbsg23
I00
sg35
g0
(cFWCore.ParameterSet.Types
bool
p50
g2
Ntp51
Rp52
(dp53
g21
I00
sg48
I01
sg23
I00
sg49
I01
sbsg36
g0
(cFWCore.ParameterSet.Types
string
p54
g2
Ntp55
Rp56
(dp57
g21
I00
sg48
I01
sg23
I01
sg49
VEgammaAnalysis/ElectronTools/data/ScalesSmearings/Run2018_29Sep2020_RunFineEtaR9Gain
p58
sbsg37
g0
(cFWCore.ParameterSet.Types
InputTag
p59
g2
Ntp60
Rp61
(dp62
g21
I00
sg48
I01
sg23
I00
sV_InputTag__moduleLabel
p63
VreducedEcalRecHitsEB
p64
sV_InputTag__productInstance
p65
V
p66
sV_InputTag__processName
p67
g66
sbsg38
g0
(g59
g2
Ntp68
Rp69
(dp70
g21
I00
sg48
I01
sg23
I00
sg63
VreducedEcalRecHitsEE
p71
sg65
g66
sg67
g66
sbsg39
g0
(g50
g2
Ntp72
Rp73
(dp74
g21
I00
sg48
I01
sg23
I00
sg49
I01
sbsg40
g0
(g59
g2
Ntp75
Rp76
(dp77
g21
I00
sg48
I01
sg23
I01
sg63
VgedGsfElectrons
p78
sg65
g66
sg67
g66
sbsg41
g0
(cFWCore.ParameterSet.Types
PSet
p79
g2
Ntp80
Rp81
(dp82
g21
I00
sg48
I01
sg23
I00
sg19
(lp83
VecalTrkRegressionConfig
p84
aVecalTrkRegressionUncertConfig
p85
aVmaxEcalEnergyForComb
p86
aVminEOverPForComb
p87
aVmaxEPDiffInSigmaForComb
p88
aVmaxRelTrkMomErrForComb
p89
asg22
Nsg84
g0
(g79
g2
Ntp90
Rp91
(dp92
g21
I00
sg48
I01
sg23
I00
sg19
(lp93
VrangeMinLowEt
p94
aVrangeMaxLowEt
p95
aVrangeMinHighEt
p96
aVrangeMaxHighEt
p97
aVlowEtHighEtBoundary
p98
aVforceHighEnergyTrainingIfSaturated
p99
aVebLowEtForestName
p100
aVebHighEtForestName
p101
aVeeLowEtForestName
p102
aVeeHighEtForestName
p103
asg22
Nsg94
g0
(g44
g2
Ntp104
Rp105
(dp106
g21
I00
sg48
I01
sg23
I00
sg49
F-1.0
sbsg95
g0
(g44
g2
Ntp107
Rp108
(dp109
g21
I00
sg48
I01
sg23
I00
sg49
F3.0
sbsg96
g0
(g44
g2
Ntp110
Rp111
(dp112
g21
I00
sg48
I01
sg23
I00
sg49
F-1.0
sbsg97
g0
(g44
g2
Ntp113
Rp114
(dp115
g21
I00
sg48
I01
sg23
I00
sg49
F3.0
sbsg98
g0
(g44
g2
Ntp116
Rp117
(dp118
g21
I00
sg48
I01
sg23
I00
sg49
F50.0
sbsg99
g0
(g50
g2
Ntp119
Rp120
(dp121
g21
I00
sg48
I01
sg23
I00
sg49
I00
sbsg100
g0
(cFWCore.ParameterSet.Types
ESInputTag
p122
g2
Ntp123
Rp124
(dp125
g21
I00
sg48
I01
sg23
I00
sV_ESInputTag__moduleLabel
p126
g66
sV_ESInputTag__data
p127
Velectron_eb_ECALTRK_lowpt
p128
sbsg101
g0
(g122
g2
Ntp129
Rp130
(dp131
g21
I00
sg48
I01
sg23
I00
sg126
g66
sg127
Velectron_eb_ECALTRK
p132
sbsg102
g0
(g122
g2
Ntp133
Rp134
(dp135
g21
I00
sg48
I01
sg23
I00
sg126
g66
sg127
Velectron_ee_ECALTRK_lowpt
p136
sbsg103
g0
(g122
g2
Ntp137
Rp138
(dp139
g21
I00
sg48
I01
sg23
I00
sg126
g66
sg127
Velectron_ee_ECALTRK
p140
sbsbsg85
g0
(g79
g2
Ntp141
Rp142
(dp143
g21
I00
sg48
I01
sg23
I00
sg19
(lp144
g94
ag95
ag96
ag97
ag98
ag99
ag100
ag101
ag102
ag103
asg22
Nsg94
g0
(g44
g2
Ntp145
Rp146
(dp147
g21
I00
sg48
I01
sg23
I00
sg49
F0.0002
sbsg95
g0
(g44
g2
Ntp148
Rp149
(dp150
g21
I00
sg48
I01
sg23
I00
sg49
F0.5
sbsg96
g0
(g44
g2
Ntp151
Rp152
(dp153
g21
I00
sg48
I01
sg23
I00
sg49
F0.0002
sbsg97
g0
(g44
g2
Ntp154
Rp155
(dp156
g21
I00
sg48
I01
sg23
I00
sg49
F0.5
sbsg98
g0
(g44
g2
Ntp157
Rp158
(dp159
g21
I00
sg48
I01
sg23
I00
sg49
F50.0
sbsg99
g0
(g50
g2
Ntp160
Rp161
(dp162
g21
I00
sg48
I01
sg23
I00
sg49
I00
sbsg100
g0
(g122
g2
Ntp163
Rp164
(dp165
g21
I00
sg48
I01
sg23
I00
sg126
g66
sg127
Velectron_eb_ECALTRK_lowpt_var
p166
sbsg101
g0
(g122
g2
Ntp167
Rp168
(dp169
g21
I00
sg48
I01
sg23
I00
sg126
g66
sg127
Velectron_eb_ECALTRK_var
p170
sbsg102
g0
(g122
g2
Ntp171
Rp172
(dp173
g21
I00
sg48
I01
sg23
I00
sg126
g66
sg127
Velectron_ee_ECALTRK_lowpt_var
p174
sbsg103
g0
(g122
g2
Ntp175
Rp176
(dp177
g21
I00
sg48
I01
sg23
I00
sg126
g66
sg127
Velectron_ee_ECALTRK_var
p178
sbsbsg86
g0
(g44
g2
Ntp179
Rp180
(dp181
g21
I00
sg48
I01
sg23
I00
sg49
F200.0
sbsg87
g0
(g44
g2
Ntp182
Rp183
(dp184
g21
I00
sg48
I01
sg23
I00
sg49
F0.025
sbsg88
g0
(g44
g2
Ntp185
Rp186
(dp187
g21
I00
sg48
I01
sg23
I00
sg49
F15.0
sbsg89
g0
(g44
g2
Ntp188
Rp189
(dp190
g21
I00
sg48
I01
sg23
I00
sg49
F10.0
sbsg27
VecalTrkCombinationRegression
p191
sbsg42
g0
(cFWCore.ParameterSet.Types
vstring
p192
c__builtin__
list
p193
(lp194
VenergyScaleStatUp
p195
aVenergyScaleStatDown
p196
aVenergyScaleSystUp
p197
aVenergyScaleSystDown
p198
aVenergyScaleGainUp
p199
aVenergyScaleGainDown
p200
aVenergySigmaRhoUp
p201
aVenergySigmaRhoDown
p202
aVenergySigmaPhiUp
p203
aVenergySigmaPhiDown
p204
aVenergyScaleUp
p205
aVenergyScaleDown
p206
aVenergySigmaUp
p207
aVenergySigmaDown
p208
aVenergyScaleValue
p209
aVenergySigmaValue
p210
aVenergySmearNrSigma
p211
aVecalEnergyPreCorr
p212
aVecalEnergyErrPreCorr
p213
aVecalEnergyPostCorr
p214
aVecalEnergyErrPostCorr
p215
aVecalTrkEnergyPreCorr
p216
aVecalTrkEnergyErrPreCorr
p217
aVecalTrkEnergyPostCorr
p218
aVecalTrkEnergyErrPostCorr
p219
atp220
Rp221
(dp222
g21
I00
sg48
I01
sg23
I00
sV_nPerLine
p223
I1
sbsg43
g0
(cFWCore.ParameterSet.Types
_OptionalParameter
p224
g2
Ntp225
Rp226
(dp227
g21
I00
sg48
I00
sg23
I00
sV_ProxyParameter__type
p228
g192
sV_ProxyParameter__value
p229
Nsbsg24
V/cvmfs/cms.cern.ch/slc7_amd64_gcc10/cms/cmssw/CMSSW_12_4_9/python/RecoEgamma/EgammaTools/calibratedEgammas_cff.py
p230
sg26
I77
sg27
g28
sbsVcalibratedPatElectrons
p231
g0
(g13
g2
Ntp232
Rp233
(dp234
g17
VCalibratedPatElectronProducer
p235
sg19
(lp236
g34
ag35
ag36
ag37
ag38
ag39
ag40
ag41
ag42
ag43
asg21
I00
sg22
Nsg34
g0
(g44
g2
Ntp237
Rp238
(dp239
g21
I00
sg48
I01
sg23
I00
sg49
F5.0
sbsg23
I00
sg35
g0
(g50
g2
Ntp240
Rp241
(dp242
g21
I00
sg48
I01
sg23
I00
sg49
I01
sbsg36
g0
(g54
g2
Ntp243
Rp244
(dp245
g21
I00
sg48
I01
sg23
I01
sg49
g58
sbsg37
g0
(g59
g2
Ntp246
Rp247
(dp248
g21
I00
sg48
I01
sg23
I01
sg63
VreducedEgamma
p249
sg65
VreducedEBRecHits
p250
sg67
g66
sbsg38
g0
(g59
g2
Ntp251
Rp252
(dp253
g21
I00
sg48
I01
sg23
I01
sg63
VreducedEgamma
p254
sg65
VreducedEERecHits
p255
sg67
g66
sbsg39
g0
(g50
g2
Ntp256
Rp257
(dp258
g21
I00
sg48
I01
sg23
I00
sg49
I01
sbsg40
g0
(g59
g2
Ntp259
Rp260
(dp261
g21
I00
sg48
I01
sg23
I01
sg63
VslimmedElectrons
p262
sg65
g66
sg67
g66
sbsg41
g81
sg42
g0
(g192
g193
(lp263
g195
ag196
ag197
ag198
ag199
ag200
ag201
ag202
ag203
ag204
ag205
ag206
ag207
ag208
ag209
ag210
ag211
ag212
ag213
ag214
ag215
ag216
ag217
ag218
ag219
atp264
Rp265
(dp266
g21
I00
sg48
I01
sg23
I00
sg223
I1
sbsg43
g0
(g224
g2
Ntp267
Rp268
(dp269
g21
I00
sg48
I00
sg23
I00
sg228
g192
sg229
Nsbsg24
g230
sg26
I83
sg27
g231
sbsVcalibratedPatPhotons
p270
g0
(g13
g2
Ntp271
Rp272
(dp273
g17
VCalibratedPatPhotonProducer
p274
sg19
(lp275
g34
ag35
ag36
ag37
ag38
ag39
ag40
ag42
ag43
asg21
I00
sg22
Nsg34
g0
(g44
g2
Ntp276
Rp277
(dp278
g21
I00
sg48
I01
sg23
I00
sg49
F5.0
sbsg23
I00
sg35
g0
(g50
g2
Ntp279
Rp280
(dp281
g21
I00
sg48
I01
sg23
I00
sg49
I01
sbsg36
g0
(g54
g2
Ntp282
Rp283
(dp284
g21
I00
sg48
I01
sg23
I01
sg49
g58
sbsg37
g0
(g59
g2
Ntp285
Rp286
(dp287
g21
I00
sg48
I01
sg23
I01
sg63
g249
sg65
g250
sg67
g66
sbsg38
g0
(g59
g2
Ntp288
Rp289
(dp290
g21
I00
sg48
I01
sg23
I01
sg63
g254
sg65
g255
sg67
g66
sbsg39
g0
(g50
g2
Ntp291
Rp292
(dp293
g21
I00
sg48
I01
sg23
I00
sg49
I01
sbsg40
g0
(g59
g2
Ntp294
Rp295
(dp296
g21
I00
sg48
I01
sg23
I01
sg63
VslimmedPhotons
p297
sg65
g66
sg67
g66
sbsg42
g0
(g192
g193
(lp298
g195
ag196
ag197
ag198
ag199
ag200
ag201
ag202
ag203
ag204
ag205
ag206
ag207
ag208
ag209
ag210
ag211
ag212
ag213
ag214
ag215
atp299
Rp300
(dp301
g21
I00
sg48
I01
sg23
I00
sg223
I1
sbsg43
g0
(g224
g2
Ntp302
Rp303
(dp304
g21
I00
sg48
I00
sg23
I00
sg228
g192
sg229
Nsbsg24
g230
sg26
I94
sg27
g270
sbsVcalibratedPhotons
p305
g0
(g13
g2
Ntp306
Rp307
(dp308
g17
VCalibratedPhotonProducer
p309
sg19
(lp310
g34
ag35
ag36
ag37
ag38
ag39
ag40
ag42
ag43
asg21
I00
sg22
Nsg34
g0
(g44
g2
Ntp311
Rp312
(dp313
g21
I00
sg48
I01
sg23
I00
sg49
F5.0
sbsg23
I00
sg35
g0
(g50
g2
Ntp314
Rp315
(dp316
g21
I00
sg48
I01
sg23
I00
sg49
I01
sbsg36
g0
(g54
g2
Ntp317
Rp318
(dp319
g21
I00
sg48
I01
sg23
I01
sg49
g58
sbsg37
g0
(g59
g2
Ntp320
Rp321
(dp322
g21
I00
sg48
I01
sg23
I00
sg63
g64
sg65
g66
sg67
g66
sbsg38
g0
(g59
g2
Ntp323
Rp324
(dp325
g21
I00
sg48
I01
sg23
I00
sg63
g71
sg65
g66
sg67
g66
sbsg39
g0
(g50
g2
Ntp326
Rp327
(dp328
g21
I00
sg48
I01
sg23
I00
sg49
I01
sbsg40
g0
(g59
g2
Ntp329
Rp330
(dp331
g21
I00
sg48
I01
sg23
I01
sg63
VgedPhotons
p332
sg65
g66
sg67
g66
sbsg42
g0
(g192
g193
(lp333
g195
ag196
ag197
ag198
ag199
ag200
ag201
ag202
ag203
ag204
ag205
ag206
ag207
ag208
ag209
ag210
ag211
ag212
ag213
ag214
ag215
atp334
Rp335
(dp336
g21
I00
sg48
I01
sg23
I00
sg223
I1
sbsg43
g0
(g224
g2
Ntp337
Rp338
(dp339
g21
I00
sg48
I00
sg23
I00
sg228
g192
sg229
Nsbsg24
g230
sg26
I89
sg27
g305
sbsVcorrectedElectrons
p340
g0
(g13
g2
Ntp341
Rp342
(dp343
g17
VCorrectedElectronProducer
p344
sg19
(lp345
g35
ag40
aVcentrality
p346
ag41
ag36
aVminPt
p347
asg21
I00
sg22
Nsg35
g0
(g50
g2
Ntp348
Rp349
(dp350
g21
I00
sg48
I01
sg23
I00
sg49
I01
sbsg23
I01
sg40
g0
(g59
g2
Ntp351
Rp352
(dp353
g21
I00
sg48
I01
sg23
I00
sg63
g262
sg65
g66
sg67
g66
sbsg346
g0
(g59
g2
Ntp354
Rp355
(dp356
g21
I00
sg48
I01
sg23
I00
sg63
VcentralityBin
p357
sg65
VHFtowers
p358
sg67
g66
sbsg41
g81
sg36
g0
(g54
g2
Ntp359
Rp360
(dp361
g21
I00
sg48
I01
sg23
I01
sg49
VHeavyIonsAnalysis/EGMAnalysis/data/SS2018PbPbMC.dat
p362
sbsg347
g0
(g44
g2
Ntp363
Rp364
(dp365
g21
I00
sg48
I01
sg23
I00
sg49
F20.0
sbsg24
V/afs/cern.ch/work/c/chenyi/CMSSW/CMSSW_12_4_9/python/HeavyIonsAnalysis/EGMAnalysis/correctedElectronProducer_cfi.py
p366
sg26
I5
sg27
g340
sbsVunpackedTracksAndVertices
p367
g0
(g13
g2
Ntp368
Rp369
(dp370
g17
VTrackAndVertexUnpacker
p371
sg19
(lp372
VpackedPFCandidates
p373
aVlostTracks
p374
aVpackedPFCandidateNormChi2Map
p375
aVlostTrackNormChi2Map
p376
aVprimaryVertices
p377
aVsecondaryVertices
p378
aVrecoverTracks
p379
ag43
asg21
I00
sg22
Nsg373
g0
(g59
g2
Ntp380
Rp381
(dp382
g21
I00
sg48
I01
sg23
I00
sg63
g373
sg65
g66
sg67
g66
sbsg23
I00
sg374
g0
(g59
g2
Ntp383
Rp384
(dp385
g21
I00
sg48
I01
sg23
I00
sg63
g374
sg65
g66
sg67
g66
sbsg375
g0
(g59
g2
Ntp386
Rp387
(dp388
g21
I00
sg48
I01
sg23
I00
sg63
VpackedPFCandidateTrackChi2
p389
sg65
g66
sg67
g66
sbsg376
g0
(g59
g2
Ntp390
Rp391
(dp392
g21
I00
sg48
I01
sg23
I00
sg63
VlostTrackChi2
p393
sg65
g66
sg67
g66
sbsg377
g0
(g59
g2
Ntp394
Rp395
(dp396
g21
I00
sg48
I01
sg23
I00
sg63
VofflineSlimmedPrimaryVertices
p397
sg65
g66
sg67
g66
sbsg378
g0
(g59
g2
Ntp398
Rp399
(dp400
g21
I00
sg48
I01
sg23
I00
sg63
VslimmedSecondaryVertices
p401
sg65
g66
sg67
g66
sbsg379
g0
(g50
g2
Ntp402
Rp403
(dp404
g21
I00
sg48
I01
sg23
I00
sg49
I00
sbsg43
g0
(g224
g2
Ntp405
Rp406
(dp407
g21
I00
sg48
I00
sg23
I00
sg228
g192
sg229
Nsbsg24
V/afs/cern.ch/work/c/chenyi/CMSSW/CMSSW_12_4_9/cfipython/slc7_amd64_gcc10/HeavyIonsAnalysis/TrackAnalysis/unpackedTracksAndVertices_cfi.py
p408
sg26
I3
sg27
g367
sbsVunpackedMuons
p409
g0
(g13
g2
Ntp410
Rp411
(dp412
g17
VMuonUnpacker
p413
sg19
(lp414
Vmuons
p415
aVtracks
p416
ag377
aVbeamSpot
p417
aVmuonSelectors
p418
aVaddPropToMuonSt
p419
aVuseTrack
p420
aVuseState
p421
aVuseSimpleGeometry
p422
aVuseStation2
p423
aVfallbackToME1
p424
aVuseMB2InOverlap
p425
aVcosmicPropagationHypothesis
p426
aVpropagatorAlong
p427
aVpropagatorAny
p428
aVpropagatorOpposite
p429
ag43
asg21
I00
sg22
Nsg415
g0
(g59
g2
Ntp430
Rp431
(dp432
g21
I00
sg48
I01
sg23
I00
sg63
VslimmedMuons
p433
sg65
g66
sg67
g66
sbsg23
I00
sg416
g0
(g59
g2
Ntp434
Rp435
(dp436
g21
I00
sg48
I01
sg23
I00
sg63
g367
sg65
g66
sg67
g66
sbsg377
g0
(g59
g2
Ntp437
Rp438
(dp439
g21
I00
sg48
I01
sg23
I00
sg63
g367
sg65
g66
sg67
g66
sbsg417
g0
(g59
g2
Ntp440
Rp441
(dp442
g21
I00
sg48
I01
sg23
I00
sg63
VofflineBeamSpot
p443
sg65
g66
sg67
g66
sbsg418
g0
(g192
g193
(lp444
VAllTrackerMuons
p445
aVTMOneStationTight
p446
atp447
Rp448
(dp449
g21
I00
sg48
I01
sg23
I00
sg223
I1
sbsg419
g0
(g50
g2
Ntp450
Rp451
(dp452
g21
I00
sg48
I01
sg23
I00
sg49
I00
sbsg420
g0
(g54
g2
Ntp453
Rp454
(dp455
g21
I00
sg48
I01
sg23
I00
sg49
Vtracker
p456
sbsg421
g0
(g54
g2
Ntp457
Rp458
(dp459
g21
I00
sg48
I01
sg23
I00
sg49
VatVertex
p460
sbsg422
g0
(g50
g2
Ntp461
Rp462
(dp463
g21
I00
sg48
I01
sg23
I00
sg49
I01
sbsg423
g0
(g50
g2
Ntp464
Rp465
(dp466
g21
I00
sg48
I01
sg23
I00
sg49
I01
sbsg424
g0
(g50
g2
Ntp467
Rp468
(dp469
g21
I00
sg48
I01
sg23
I00
sg49
I01
sbsg425
g0
(g50
g2
Ntp470
Rp471
(dp472
g21
I00
sg48
I01
sg23
I00
sg49
I01
sbsg426
g0
(g50
g2
Ntp473
Rp474
(dp475
g21
I00
sg48
I01
sg23
I00
sg49
I00
sbsg427
g0
(g122
g2
Ntp476
Rp477
(dp478
g21
I00
sg48
I01
sg23
I00
sg126
g66
sg127
VhltESPSteppingHelixPropagatorAlong
p479
sbsg428
g0
(g122
g2
Ntp480
Rp481
(dp482
g21
I00
sg48
I01
sg23
I00
sg126
g66
sg127
VSteppingHelixPropagatorAny
p483
sbsg429
g0
(g122
g2
Ntp484
Rp485
(dp486
g21
I00
sg48
I01
sg23
I00
sg126
g66
sg127
VhltESPSteppingHelixPropagatorOpposite
p487
sbsg43
g0
(g224
g2
Ntp488
Rp489
(dp490
g21
I00
sg48
I00
sg23
I00
sg228
g192
sg229
Nsbsg24
V/afs/cern.ch/work/c/chenyi/CMSSW/CMSSW_12_4_9/cfipython/slc7_amd64_gcc10/HeavyIonsAnalysis/MuonAnalysis/unpackedMuons_cfi.py
p491
sg26
I3
sg27
g409
sbssV_Process__switchproducers
p492
(dp493
sV_Process__source
p494
g0
(cFWCore.ParameterSet.Modules
Source
p495
g2
Ntp496
Rp497
(dp498
g17
VPoolSource
p499
sg19
(lp500
VduplicateCheckMode
p501
aVfileNames
p502
asg21
I00
sg22
Nsg501
g0
(g54
g2
Ntp503
Rp504
(dp505
g21
I00
sg48
I00
sg23
I00
sg49
VnoDuplicateCheck
p506
sbsg23
I00
sg502
g0
(g192
g193
(lp507
Vfile:/tmp/chenyi/step3_RECO_1.root
p508
atp509
Rp510
(dp511
g21
I00
sg48
I00
sg23
I00
sg223
I1
sbsg24
V/cvmfs/cms.cern.ch/slc7_amd64_gcc10/cms/cmssw/CMSSW_12_4_9/python/FWCore/ParameterSet/Modules.py
p512
sg26
I195
sbsV_Process__looper
p513
NsV_Process__subProcesses
p514
(lp515
sV_Process__schedule
p516
NsV_Process__analyzers
p517
(dp518
VHiForestInfo
p519
g0
(cFWCore.ParameterSet.Modules
EDAnalyzer
p520
g2
Ntp521
Rp522
(dp523
g17
g519
sg19
(lp524
VHiForestVersion
p525
aVGlobalTagLabel
p526
aVinfo
p527
asg21
I00
sg22
Nsg525
g0
(g54
g2
Ntp528
Rp529
(dp530
g21
I00
sg48
I01
sg23
I00
sg49
g66
sbsg23
I01
sg526
g0
(g54
g2
Ntp531
Rp532
(dp533
g21
I00
sg48
I01
sg23
I00
sg49
V124X_mcRun3_2022_realistic_HI_v10
p534
sbsg527
g0
(g192
g193
(lp535
VHiForest, miniAOD, 122X, mc
p536
atp537
Rp538
(dp539
g21
I00
sg48
I01
sg23
I00
sg223
I1
sbsg24
V/afs/cern.ch/work/c/chenyi/CMSSW/CMSSW_12_4_9/python/HeavyIonsAnalysis/EventAnalysis/HiForestInfo_cfi.py
p540
sg26
I3
sg27
g519
sbsVHiGenParticleAna
p541
g0
(g520
g2
Ntp542
Rp543
(dp544
g17
VHiGenAnalyzer
p545
sg19
(lp546
VdoVertex
p547
aVetaMax
p548
aVptMin
p549
aVchargedOnly
p550
aVstableOnly
p551
ag40
aVgenParticleSrc
p552
aVsignalGenParticleSrc
p553
aVgenHIsrc
p554
aVdoParticles
p555
aVdoHI
p556
asg21
I00
sg22
Nsg547
g0
(g50
g2
Ntp557
Rp558
(dp559
g21
I00
sg48
I00
sg23
I00
sg49
I00
sbsg23
I00
sg548
g0
(g44
g2
Ntp560
Rp561
(dp562
g21
I00
sg48
I00
sg23
I00
sg49
I5
sbsg549
g0
(g44
g2
Ntp563
Rp564
(dp565
g21
I00
sg48
I00
sg23
I00
sg49
I0
sbsg550
g0
(g50
g2
Ntp566
Rp567
(dp568
g21
I00
sg48
I00
sg23
I00
sg49
I00
sbsg551
g0
(g50
g2
Ntp569
Rp570
(dp571
g21
I00
sg48
I00
sg23
I00
sg49
I01
sbsg40
g0
(g59
g2
Ntp572
Rp573
(dp574
g21
I00
sg48
I00
sg23
I00
sg63
Vgenerator
p575
sg65
g66
sg67
g66
sbsg552
g0
(g59
g2
Ntp576
Rp577
(dp578
g21
I00
sg48
I00
sg23
I00
sg63
VgenParticles
p579
sg65
g66
sg67
g66
sbsg553
g0
(g59
g2
Ntp580
Rp581
(dp582
g21
I00
sg48
I01
sg23
I00
sg63
VgenParticlesSignal
p583
sg65
g66
sg67
g66
sbsg554
g0
(g59
g2
Ntp584
Rp585
(dp586
g21
I00
sg48
I00
sg23
I00
sg63
VheavyIon
p587
sg65
g66
sg67
g66
sbsg555
g0
(g50
g2
Ntp588
Rp589
(dp590
g21
I00
sg48
I00
sg23
I00
sg49
I01
sbsg556
g0
(g50
g2
Ntp591
Rp592
(dp593
g21
I00
sg48
I00
sg23
I00
sg49
I00
sbsg24
V/afs/cern.ch/work/c/chenyi/CMSSW/CMSSW_12_4_9/python/HeavyIonsAnalysis/EventAnalysis/HiGenAnalyzer_cfi.py
p594
sg26
I3
sg27
g541
sbsVhltanalysis
p595
g0
(g520
g2
Ntp596
Rp597
(dp598
g17
VTriggerAnalyzer
p599
sg19
(lp600
VHLTProcessName
p601
aVhltresults
p602
aVl1results
p603
aVhltdummybranches
p604
aVl1dummybranches
p605
aVhltPSProvCfg
p606
asg21
I00
sg22
Nsg601
g0
(g54
g2
Ntp607
Rp608
(dp609
g21
I00
sg48
I01
sg23
I00
sg49
VHLT
p610
sbsg23
I00
sg602
g0
(g59
g2
Ntp611
Rp612
(dp613
g21
I00
sg48
I01
sg23
I00
sg63
VTriggerResults
p614
sg65
g66
sg67
VHLT
p615
sbsg603
g0
(g59
g2
Ntp616
Rp617
(dp618
g21
I00
sg48
I01
sg23
I00
sg63
VgtStage2Digis
p619
sg65
g66
sg67
g66
sbsg604
g0
(g192
g193
(lp620
VDST_Physics_v7
p621
aVAlCa_EcalEtaEBonlyForHI_v1
p622
aVAlCa_EcalEtaEEonlyForHI_v1
p623
aVAlCa_EcalPhiSymForHI_v1
p624
aVAlCa_EcalPi0EBonlyForHI_v1
p625
aVAlCa_EcalPi0EEonlyForHI_v1
p626
aVAlCa_RPCMuonNormalisationForHI_v1
p627
aVHLT_EcalCalibration_v4
p628
aVHLT_HICastorMinimumBias_part0_v1
p629
aVHLT_HICastorMinimumBias_part10_v1
p630
aVHLT_HICastorMinimumBias_part11_v1
p631
aVHLT_HICastorMinimumBias_part12_v1
p632
aVHLT_HICastorMinimumBias_part13_v1
p633
aVHLT_HICastorMinimumBias_part14_v1
p634
aVHLT_HICastorMinimumBias_part15_v1
p635
aVHLT_HICastorMinimumBias_part16_v1
p636
aVHLT_HICastorMinimumBias_part17_v1
p637
aVHLT_HICastorMinimumBias_part18_v1
p638
aVHLT_HICastorMinimumBias_part19_v1
p639
aVHLT_HICastorMinimumBias_part1_v1
p640
aVHLT_HICastorMinimumBias_part2_v1
p641
aVHLT_HICastorMinimumBias_part3_v1
p642
aVHLT_HICastorMinimumBias_part4_v1
p643
aVHLT_HICastorMinimumBias_part5_v1
p644
aVHLT_HICastorMinimumBias_part6_v1
p645
aVHLT_HICastorMinimumBias_part7_v1
p646
aVHLT_HICastorMinimumBias_part8_v1
p647
aVHLT_HICastorMinimumBias_part9_v1
p648
aVHLT_HICastor_HighJet_BptxAND_v1
p649
aVHLT_HICastor_HighJet_MBHF1AND_BptxAND_v1
p650
aVHLT_HICastor_HighJet_MBHF1OR_BptxAND_v1
p651
aVHLT_HICastor_HighJet_MBHF1OR_v1
p652
aVHLT_HICastor_HighJet_MBHF2AND_BptxAND_v1
p653
aVHLT_HICastor_HighJet_NotMBHF2AND_v1
p654
aVHLT_HICastor_HighJet_NotMBHF2OR_v1
p655
aVHLT_HICastor_HighJet_v1
p656
aVHLT_HICastor_MediumJet_BptxAND_v1
p657
aVHLT_HICastor_MediumJet_MBHF1OR_BptxAND_v1
p658
aVHLT_HICastor_MediumJet_MBHF1OR_v1
p659
aVHLT_HICastor_MediumJet_NotMBHF2AND_v1
p660
aVHLT_HICastor_MediumJet_NotMBHF2OR_v1
p661
aVHLT_HICastor_MediumJet_SingleEG5_MBHF1OR_BptxAND_v1
p662
aVHLT_HICastor_MediumJet_SingleEG5_MBHF1OR_v1
p663
aVHLT_HICastor_MediumJet_SingleMu0_MBHF1OR_BptxAND_v1
p664
aVHLT_HICastor_MediumJet_SingleMu0_MBHF1OR_v1
p665
aVHLT_HICastor_MediumJet_v1
p666
aVHLT_HICastor_Muon_BptxAND_v1
p667
aVHLT_HICastor_Muon_v1
p668
aVHLT_HICentrality30100_FirstCollisionAfterAbortGap_v1
p669
aVHLT_HICentralityTag20100_v1
p670
aVHLT_HICentralityTag30100_v1
p671
aVHLT_HICentralityTag50100_v1
p672
aVHLT_HICentralityVeto_Beamspot_v1
p673
aVHLT_HICentralityVeto_v1
p674
aVHLT_HICsAK4PFJet100Eta1p5_Beamspot_v1
p675
aVHLT_HICsAK4PFJet100Eta1p5_Centrality_30_100_v1
p676
aVHLT_HICsAK4PFJet100Eta1p5_Centrality_50_100_v1
p677
aVHLT_HICsAK4PFJet100Eta1p5_v1
p678
aVHLT_HICsAK4PFJet120Eta1p5_v1
p679
aVHLT_HICsAK4PFJet60Eta1p5_Centrality_30_100_v1
p680
aVHLT_HICsAK4PFJet60Eta1p5_Centrality_50_100_v1
p681
aVHLT_HICsAK4PFJet60Eta1p5_v1
p682
aVHLT_HICsAK4PFJet80Eta1p5_Centrality_30_100_v1
p683
aVHLT_HICsAK4PFJet80Eta1p5_Centrality_50_100_v1
p684
aVHLT_HICsAK4PFJet80Eta1p5_v1
p685
aVHLT_HIDmesonPPTrackingGlobal_Dpt15_v1
p686
aVHLT_HIDmesonPPTrackingGlobal_Dpt20_v1
p687
aVHLT_HIDmesonPPTrackingGlobal_Dpt30_v1
p688
aVHLT_HIDmesonPPTrackingGlobal_Dpt40_v1
p689
aVHLT_HIDmesonPPTrackingGlobal_Dpt50_v1
p690
aVHLT_HIDmesonPPTrackingGlobal_Dpt60_v1
p691
aVHLT_HIDoubleEle10GsfMass50_v1
p692
aVHLT_HIDoubleEle10Gsf_v1
p693
aVHLT_HIDoubleEle15GsfMass50_v1
p694
aVHLT_HIDoubleEle15Gsf_v1
p695
aVHLT_HIDsPPTrackingGlobal_Dpt20_v1
p696
aVHLT_HIDsPPTrackingGlobal_Dpt30_v1
p697
aVHLT_HIDsPPTrackingGlobal_Dpt40_v1
p698
aVHLT_HIDsPPTrackingGlobal_Dpt50_v1
p699
aVHLT_HIDsPPTrackingGlobal_Dpt60_v1
p700
aVHLT_HIEle10Gsf_PuAK4CaloJet100Eta2p1_v1
p701
aVHLT_HIEle10Gsf_PuAK4CaloJet40Eta2p1_v1
p702
aVHLT_HIEle10Gsf_PuAK4CaloJet60Eta2p1_v1
p703
aVHLT_HIEle10Gsf_PuAK4CaloJet80Eta2p1_v1
p704
aVHLT_HIEle10Gsf_v1
p705
aVHLT_HIEle15Ele10GsfMass50_v1
p706
aVHLT_HIEle15Ele10Gsf_v1
p707
aVHLT_HIEle15Gsf_PuAK4CaloJet100Eta2p1_v1
p708
aVHLT_HIEle15Gsf_PuAK4CaloJet40Eta2p1_v1
p709
aVHLT_HIEle15Gsf_PuAK4CaloJet60Eta2p1_v1
p710
aVHLT_HIEle15Gsf_PuAK4CaloJet80Eta2p1_v1
p711
aVHLT_HIEle15Gsf_v1
p712
aVHLT_HIEle20Gsf_PuAK4CaloJet100Eta2p1_v1
p713
aVHLT_HIEle20Gsf_PuAK4CaloJet40Eta2p1_v1
p714
aVHLT_HIEle20Gsf_PuAK4CaloJet60Eta2p1_v1
p715
aVHLT_HIEle20Gsf_PuAK4CaloJet80Eta2p1_v1
p716
aVHLT_HIEle20Gsf_v1
p717
aVHLT_HIEle30Gsf_v1
p718
aVHLT_HIEle40Gsf_v1
p719
aVHLT_HIEle50Gsf_v1
p720
aVHLT_HIFullTracks2018_HighPt18_v1
p721
aVHLT_HIFullTracks2018_HighPt24_v1
p722
aVHLT_HIFullTracks2018_HighPt34_v1
p723
aVHLT_HIFullTracks2018_HighPt45_v1
p724
aVHLT_HIFullTracks2018_HighPt56_v1
p725
aVHLT_HIFullTracks2018_HighPt60_v1
p726
aVHLT_HIFullTracks_Multiplicity020_HF1AND_v1
p727
aVHLT_HIFullTracks_Multiplicity020_HF1OR_v1
p728
aVHLT_HIFullTracks_Multiplicity020_HF2OR_v1
p729
aVHLT_HIFullTracks_Multiplicity020_v1
p730
aVHLT_HIFullTracks_Multiplicity2040_HF1AND_v1
p731
aVHLT_HIFullTracks_Multiplicity2040_HF1OR_v1
p732
aVHLT_HIFullTracks_Multiplicity2040_HF2OR_v1
p733
aVHLT_HIFullTracks_Multiplicity2040_v1
p734
aVHLT_HIFullTracks_Multiplicity335_HF1OR_v1
p735
aVHLT_HIFullTracks_Multiplicity4060_v1
p736
aVHLT_HIFullTracks_Multiplicity6080_v1
p737
aVHLT_HIFullTracks_Multiplicity80100_v1
p738
aVHLT_HIGEDPhoton10_Cent30_100_v1
p739
aVHLT_HIGEDPhoton10_Cent50_100_v1
p740
aVHLT_HIGEDPhoton10_EB_HECut_v1
p741
aVHLT_HIGEDPhoton10_EB_v1
p742
aVHLT_HIGEDPhoton10_HECut_v1
p743
aVHLT_HIGEDPhoton10_v1
p744
aVHLT_HIGEDPhoton20_Cent30_100_v1
p745
aVHLT_HIGEDPhoton20_Cent50_100_v1
p746
aVHLT_HIGEDPhoton20_EB_HECut_v1
p747
aVHLT_HIGEDPhoton20_EB_v1
p748
aVHLT_HIGEDPhoton20_HECut_v1
p749
aVHLT_HIGEDPhoton20_v1
p750
aVHLT_HIGEDPhoton30_Cent30_100_v1
p751
aVHLT_HIGEDPhoton30_Cent50_100_v1
p752
aVHLT_HIGEDPhoton30_EB_HECut_v1
p753
aVHLT_HIGEDPhoton30_EB_v1
p754
aVHLT_HIGEDPhoton30_HECut_v1
p755
aVHLT_HIGEDPhoton30_v1
p756
aVHLT_HIGEDPhoton40_Cent30_100_v1
p757
aVHLT_HIGEDPhoton40_Cent50_100_v1
p758
aVHLT_HIGEDPhoton40_EB_HECut_v1
p759
aVHLT_HIGEDPhoton40_EB_v1
p760
aVHLT_HIGEDPhoton40_HECut_v1
p761
aVHLT_HIGEDPhoton40_v1
p762
aVHLT_HIGEDPhoton50_EB_HECut_v1
p763
aVHLT_HIGEDPhoton50_EB_v1
p764
aVHLT_HIGEDPhoton50_HECut_v1
p765
aVHLT_HIGEDPhoton50_v1
p766
aVHLT_HIGEDPhoton60_EB_HECut_v1
p767
aVHLT_HIGEDPhoton60_EB_v1
p768
aVHLT_HIGEDPhoton60_HECut_v1
p769
aVHLT_HIGEDPhoton60_v1
p770
aVHLT_HIHcalNZS_v1
p771
aVHLT_HIHcalPhiSym_v1
p772
aVHLT_HIIslandPhoton10_Eta1p5_v1
p773
aVHLT_HIIslandPhoton10_Eta2p4_Cent30_100_v1
p774
aVHLT_HIIslandPhoton10_Eta2p4_Cent50_100_v1
p775
aVHLT_HIIslandPhoton10_Eta2p4_v1
p776
aVHLT_HIIslandPhoton10_Eta3p1_Cent30_100_v1
p777
aVHLT_HIIslandPhoton10_Eta3p1_Cent50_100_v1
p778
aVHLT_HIIslandPhoton10_Eta3p1_v1
p779
aVHLT_HIIslandPhoton20_Eta1p5_v1
p780
aVHLT_HIIslandPhoton20_Eta2p4_Cent30_100_v1
p781
aVHLT_HIIslandPhoton20_Eta2p4_Cent50_100_v1
p782
aVHLT_HIIslandPhoton20_Eta2p4_v1
p783
aVHLT_HIIslandPhoton20_Eta3p1_Cent30_100_v1
p784
aVHLT_HIIslandPhoton20_Eta3p1_Cent50_100_v1
p785
aVHLT_HIIslandPhoton20_Eta3p1_v1
p786
aVHLT_HIIslandPhoton30_Eta1p5_v1
p787
aVHLT_HIIslandPhoton30_Eta2p4_Cent30_100_v1
p788
aVHLT_HIIslandPhoton30_Eta2p4_Cent50_100_v1
p789
aVHLT_HIIslandPhoton30_Eta2p4_v1
p790
aVHLT_HIIslandPhoton30_Eta3p1_Cent30_100_v1
p791
aVHLT_HIIslandPhoton30_Eta3p1_Cent50_100_v1
p792
aVHLT_HIIslandPhoton30_Eta3p1_v1
p793
aVHLT_HIIslandPhoton40_Eta1p5_v1
p794
aVHLT_HIIslandPhoton40_Eta2p4_Cent30_100_v1
p795
aVHLT_HIIslandPhoton40_Eta2p4_Cent50_100_v1
p796
aVHLT_HIIslandPhoton40_Eta2p4_v1
p797
aVHLT_HIIslandPhoton40_Eta3p1_Cent30_100_v1
p798
aVHLT_HIIslandPhoton40_Eta3p1_Cent50_100_v1
p799
aVHLT_HIIslandPhoton40_Eta3p1_v1
p800
aVHLT_HIIslandPhoton50_Eta1p5_v1
p801
aVHLT_HIIslandPhoton50_Eta2p4_v1
p802
aVHLT_HIIslandPhoton50_Eta3p1_v1
p803
aVHLT_HIIslandPhoton60_Eta1p5_v1
p804
aVHLT_HIIslandPhoton60_Eta2p4_v1
p805
aVHLT_HIIslandPhoton60_Eta3p1_v1
p806
aVHLT_HIL1DoubleMu0_v1
p807
aVHLT_HIL1DoubleMu10_v1
p808
aVHLT_HIL1DoubleMuOpen_Centrality_30_100_v1
p809
aVHLT_HIL1DoubleMuOpen_Centrality_40_100_v1
p810
aVHLT_HIL1DoubleMuOpen_Centrality_50_100_v1
p811
aVHLT_HIL1DoubleMuOpen_MAXdR2p0_v1
p812
aVHLT_HIL1DoubleMuOpen_MAXdR3p5_v1
p813
aVHLT_HIL1DoubleMuOpen_OS_Centrality_30_100_v1
p814
aVHLT_HIL1DoubleMuOpen_OS_Centrality_40_100_v1
p815
aVHLT_HIL1DoubleMuOpen_OS_MAXdR2p0_v1
p816
aVHLT_HIL1DoubleMuOpen_OS_er1p6_v1
p817
aVHLT_HIL1DoubleMuOpen_OS_v1
p818
aVHLT_HIL1DoubleMuOpen_SS_v1
p819
aVHLT_HIL1DoubleMuOpen_er1p6_v1
p820
aVHLT_HIL1DoubleMuOpen_v1
p821
aVHLT_HIL1Mu3Eta2p5_Ele10Gsf_v1
p822
aVHLT_HIL1Mu3Eta2p5_Ele15Gsf_v1
p823
aVHLT_HIL1Mu3Eta2p5_Ele20Gsf_v1
p824
aVHLT_HIL1Mu3_Centrality_70_100_v1
p825
aVHLT_HIL1Mu3_Centrality_80_100_v1
p826
aVHLT_HIL1Mu3_v1
p827
aVHLT_HIL1Mu5Eta2p5_Ele10Gsf_v1
p828
aVHLT_HIL1Mu5Eta2p5_Ele15Gsf_v1
p829
aVHLT_HIL1Mu5Eta2p5_Ele20Gsf_v1
p830
aVHLT_HIL1Mu5_v1
p831
aVHLT_HIL1Mu7Eta2p5_Ele10Gsf_v1
p832
aVHLT_HIL1Mu7Eta2p5_Ele15Gsf_v1
p833
aVHLT_HIL1Mu7Eta2p5_Ele20Gsf_v1
p834
aVHLT_HIL1Mu7_v1
p835
aVHLT_HIL1MuOpen_Centrality_70_100_v1
p836
aVHLT_HIL1MuOpen_Centrality_80_100_v1
p837
aVHLT_HIL1NotBptxOR_v1
p838
aVHLT_HIL1UnpairedBunchBptxMinus_v1
p839
aVHLT_HIL1UnpairedBunchBptxPlus_v1
p840
aVHLT_HIL1_ETT10_ETTAsym50_MinimumBiasHF1_OR_BptxAND_v1
p841
aVHLT_HIL1_ETT60_ETTAsym65_MinimumBiasHF2_OR_PixelTracks10_v1
p842
aVHLT_HIL1_ETT65_ETTAsym80_MinimumBiasHF2_OR_PixelTracks10_v1
p843
aVHLT_HIL1_ETT8_ETTAsym50_MinimumBiasHF1_OR_BptxAND_v1
p844
aVHLT_HIL1_ZDC_AND_OR_MinimumBiasHF1_AND_BptxAND_v1
p845
aVHLT_HIL1_ZDC_AND_OR_MinimumBiasHF2_AND_BptxAND_v1
p846
aVHLT_HIL2DoubleMuOpen_v1
p847
aVHLT_HIL2DoubleMu_L1DoubleMuOpen_OS_MAXdR2p0_v1
p848
aVHLT_HIL2Mu12_v1
p849
aVHLT_HIL2Mu15_v1
p850
aVHLT_HIL2Mu20_v1
p851
aVHLT_HIL2Mu3_NHitQ10_v1
p852
aVHLT_HIL2Mu3_NHitQ15_tagging_v1
p853
aVHLT_HIL2Mu3_NHitQ15_v1
p854
aVHLT_HIL2Mu3_v1
p855
aVHLT_HIL2Mu5_NHitQ10_v1
p856
aVHLT_HIL2Mu5_NHitQ15_tagging_v1
p857
aVHLT_HIL2Mu5_NHitQ15_v1
p858
aVHLT_HIL2Mu5_v1
p859
aVHLT_HIL2Mu7_NHitQ10_v1
p860
aVHLT_HIL2Mu7_NHitQ15_tagging_v1
p861
aVHLT_HIL2Mu7_NHitQ15_v1
p862
aVHLT_HIL2Mu7_v1
p863
aVHLT_HIL2_L1DoubleMu10_v1
p864
aVHLT_HIL3DoubleMuOpen_JpsiPsi_v1
p865
aVHLT_HIL3DoubleMuOpen_M60120_v1
p866
aVHLT_HIL3DoubleMuOpen_Upsi_v1
p867
aVHLT_HIL3DoubleMuOpen_v1
p868
aVHLT_HIL3Mu0NHitQ10_L2Mu0_MAXdR3p5_M1to5_v1
p869
aVHLT_HIL3Mu0_L2Mu0_v1
p870
aVHLT_HIL3Mu12_v1
p871
aVHLT_HIL3Mu15_v1
p872
aVHLT_HIL3Mu20_v1
p873
aVHLT_HIL3Mu2p5NHitQ10_L2Mu2_M7toinf_v1
p874
aVHLT_HIL3Mu2p5NHitQ10_L2Mu2_v1
p875
aVHLT_HIL3Mu2p5_L1DoubleMu0_v1
p876
aVHLT_HIL3Mu3Eta2p5_PuAK4CaloJet100Eta2p1_FilterDr_v1
p877
aVHLT_HIL3Mu3Eta2p5_PuAK4CaloJet100Eta2p1_v1
p878
aVHLT_HIL3Mu3Eta2p5_PuAK4CaloJet40Eta2p1_FilterDr_v1
p879
aVHLT_HIL3Mu3Eta2p5_PuAK4CaloJet40Eta2p1_v1
p880
aVHLT_HIL3Mu3Eta2p5_PuAK4CaloJet60Eta2p1_FilterDr_v1
p881
aVHLT_HIL3Mu3Eta2p5_PuAK4CaloJet60Eta2p1_v1
p882
aVHLT_HIL3Mu3Eta2p5_PuAK4CaloJet80Eta2p1_FilterDr_v1
p883
aVHLT_HIL3Mu3Eta2p5_PuAK4CaloJet80Eta2p1_v1
p884
aVHLT_HIL3Mu3NHitQ10_L1DoubleMuOpen_v1
p885
aVHLT_HIL3Mu3_EG10HECut_v1
p886
aVHLT_HIL3Mu3_EG15HECut_v1
p887
aVHLT_HIL3Mu3_EG20HECut_v1
p888
aVHLT_HIL3Mu3_EG30HECut_v1
p889
aVHLT_HIL3Mu3_L1DoubleMu0_v1
p890
aVHLT_HIL3Mu3_L1DoubleMuOpen_OS_v1
p891
aVHLT_HIL3Mu3_L1DoubleMuOpen_v1
p892
aVHLT_HIL3Mu3_L1TripleMuOpen_v1
p893
aVHLT_HIL3Mu3_NHitQ10_tagging_v1
p894
aVHLT_HIL3Mu3_NHitQ10_v1
p895
aVHLT_HIL3Mu3_v1
p896
aVHLT_HIL3Mu5Eta2p5_PuAK4CaloJet100Eta2p1_FilterDr_v1
p897
aVHLT_HIL3Mu5Eta2p5_PuAK4CaloJet100Eta2p1_v1
p898
aVHLT_HIL3Mu5Eta2p5_PuAK4CaloJet40Eta2p1_FilterDr_v1
p899
aVHLT_HIL3Mu5Eta2p5_PuAK4CaloJet40Eta2p1_v1
p900
aVHLT_HIL3Mu5Eta2p5_PuAK4CaloJet60Eta2p1_FilterDr_v1
p901
aVHLT_HIL3Mu5Eta2p5_PuAK4CaloJet60Eta2p1_v1
p902
aVHLT_HIL3Mu5Eta2p5_PuAK4CaloJet80Eta2p1_FilterDr_v1
p903
aVHLT_HIL3Mu5Eta2p5_PuAK4CaloJet80Eta2p1_v1
p904
aVHLT_HIL3Mu5_EG10HECut_v1
p905
aVHLT_HIL3Mu5_EG15HECut_v1
p906
aVHLT_HIL3Mu5_EG20HECut_v1
p907
aVHLT_HIL3Mu5_EG30HECut_v1
p908
aVHLT_HIL3Mu5_NHitQ10_tagging_v1
p909
aVHLT_HIL3Mu5_NHitQ10_v1
p910
aVHLT_HIL3Mu5_v1
p911
aVHLT_HIL3Mu7_EG10HECut_v1
p912
aVHLT_HIL3Mu7_EG15HECut_v1
p913
aVHLT_HIL3Mu7_EG20HECut_v1
p914
aVHLT_HIL3Mu7_EG30HECut_v1
p915
aVHLT_HIL3Mu7_NHitQ10_tagging_v1
p916
aVHLT_HIL3Mu7_NHitQ10_v1
p917
aVHLT_HIL3Mu7_v1
p918
aVHLT_HIL3_L1DoubleMu10_v1
p919
aVHLT_HILcPPTrackingGlobal_Dpt20_v1
p920
aVHLT_HILcPPTrackingGlobal_Dpt30_v1
p921
aVHLT_HILcPPTrackingGlobal_Dpt40_v1
p922
aVHLT_HILcPPTrackingGlobal_Dpt50_v1
p923
aVHLT_HILcPPTrackingGlobal_Dpt60_v1
p924
aVHLT_HIMinimumBiasHFOR_v1
p925
aVHLT_HIMinimumBiasRF_SinglePixelTrack_part0_v1
p926
aVHLT_HIMinimumBiasRF_SinglePixelTrack_part10_v1
p927
aVHLT_HIMinimumBiasRF_SinglePixelTrack_part11_v1
p928
aVHLT_HIMinimumBiasRF_SinglePixelTrack_part12_v1
p929
aVHLT_HIMinimumBiasRF_SinglePixelTrack_part13_v1
p930
aVHLT_HIMinimumBiasRF_SinglePixelTrack_part14_v1
p931
aVHLT_HIMinimumBiasRF_SinglePixelTrack_part15_v1
p932
aVHLT_HIMinimumBiasRF_SinglePixelTrack_part16_v1
p933
aVHLT_HIMinimumBiasRF_SinglePixelTrack_part17_v1
p934
aVHLT_HIMinimumBiasRF_SinglePixelTrack_part18_v1
p935
aVHLT_HIMinimumBiasRF_SinglePixelTrack_part19_v1
p936
aVHLT_HIMinimumBiasRF_SinglePixelTrack_part1_v1
p937
aVHLT_HIMinimumBiasRF_SinglePixelTrack_part20_v1
p938
aVHLT_HIMinimumBiasRF_SinglePixelTrack_part21_v1
p939
aVHLT_HIMinimumBiasRF_SinglePixelTrack_part22_v1
p940
aVHLT_HIMinimumBiasRF_SinglePixelTrack_part23_v1
p941
aVHLT_HIMinimumBiasRF_SinglePixelTrack_part2_v1
p942
aVHLT_HIMinimumBiasRF_SinglePixelTrack_part3_v1
p943
aVHLT_HIMinimumBiasRF_SinglePixelTrack_part4_v1
p944
aVHLT_HIMinimumBiasRF_SinglePixelTrack_part5_v1
p945
aVHLT_HIMinimumBiasRF_SinglePixelTrack_part6_v1
p946
aVHLT_HIMinimumBiasRF_SinglePixelTrack_part7_v1
p947
aVHLT_HIMinimumBiasRF_SinglePixelTrack_part8_v1
p948
aVHLT_HIMinimumBiasRF_SinglePixelTrack_part9_v1
p949
aVHLT_HIMinimumBiasRF_part0_v1
p950
aVHLT_HIMinimumBiasRF_part10_v1
p951
aVHLT_HIMinimumBiasRF_part11_v1
p952
aVHLT_HIMinimumBiasRF_part12_v1
p953
aVHLT_HIMinimumBiasRF_part13_v1
p954
aVHLT_HIMinimumBiasRF_part14_v1
p955
aVHLT_HIMinimumBiasRF_part15_v1
p956
aVHLT_HIMinimumBiasRF_part16_v1
p957
aVHLT_HIMinimumBiasRF_part17_v1
p958
aVHLT_HIMinimumBiasRF_part18_v1
p959
aVHLT_HIMinimumBiasRF_part19_v1
p960
aVHLT_HIMinimumBiasRF_part1_v1
p961
aVHLT_HIMinimumBiasRF_part20_v1
p962
aVHLT_HIMinimumBiasRF_part21_v1
p963
aVHLT_HIMinimumBiasRF_part22_v1
p964
aVHLT_HIMinimumBiasRF_part23_v1
p965
aVHLT_HIMinimumBiasRF_part2_v1
p966
aVHLT_HIMinimumBiasRF_part3_v1
p967
aVHLT_HIMinimumBiasRF_part4_v1
p968
aVHLT_HIMinimumBiasRF_part5_v1
p969
aVHLT_HIMinimumBiasRF_part6_v1
p970
aVHLT_HIMinimumBiasRF_part7_v1
p971
aVHLT_HIMinimumBiasRF_part8_v1
p972
aVHLT_HIMinimumBiasRF_part9_v1
p973
aVHLT_HIMinimumBias_SinglePixelTrack_NpixBypass_part0_v1
p974
aVHLT_HIMinimumBias_SinglePixelTrack_NpixBypass_part10_v1
p975
aVHLT_HIMinimumBias_SinglePixelTrack_NpixBypass_part11_v1
p976
aVHLT_HIMinimumBias_SinglePixelTrack_NpixBypass_part12_v1
p977
aVHLT_HIMinimumBias_SinglePixelTrack_NpixBypass_part13_v1
p978
aVHLT_HIMinimumBias_SinglePixelTrack_NpixBypass_part14_v1
p979
aVHLT_HIMinimumBias_SinglePixelTrack_NpixBypass_part15_v1
p980
aVHLT_HIMinimumBias_SinglePixelTrack_NpixBypass_part16_v1
p981
aVHLT_HIMinimumBias_SinglePixelTrack_NpixBypass_part17_v1
p982
aVHLT_HIMinimumBias_SinglePixelTrack_NpixBypass_part18_v1
p983
aVHLT_HIMinimumBias_SinglePixelTrack_NpixBypass_part19_v1
p984
aVHLT_HIMinimumBias_SinglePixelTrack_NpixBypass_part1_v1
p985
aVHLT_HIMinimumBias_SinglePixelTrack_NpixBypass_part2_v1
p986
aVHLT_HIMinimumBias_SinglePixelTrack_NpixBypass_part3_v1
p987
aVHLT_HIMinimumBias_SinglePixelTrack_NpixBypass_part4_v1
p988
aVHLT_HIMinimumBias_SinglePixelTrack_NpixBypass_part5_v1
p989
aVHLT_HIMinimumBias_SinglePixelTrack_NpixBypass_part6_v1
p990
aVHLT_HIMinimumBias_SinglePixelTrack_NpixBypass_part7_v1
p991
aVHLT_HIMinimumBias_SinglePixelTrack_NpixBypass_part8_v1
p992
aVHLT_HIMinimumBias_SinglePixelTrack_NpixBypass_part9_v1
p993
aVHLT_HIMinimumBias_SinglePixelTrack_NpixGated_part0_v1
p994
aVHLT_HIMinimumBias_SinglePixelTrack_NpixGated_part10_v1
p995
aVHLT_HIMinimumBias_SinglePixelTrack_NpixGated_part11_v1
p996
aVHLT_HIMinimumBias_SinglePixelTrack_NpixGated_part12_v1
p997
aVHLT_HIMinimumBias_SinglePixelTrack_NpixGated_part13_v1
p998
aVHLT_HIMinimumBias_SinglePixelTrack_NpixGated_part14_v1
p999
aVHLT_HIMinimumBias_SinglePixelTrack_NpixGated_part15_v1
p1000
aVHLT_HIMinimumBias_SinglePixelTrack_NpixGated_part16_v1
p1001
aVHLT_HIMinimumBias_SinglePixelTrack_NpixGated_part17_v1
p1002
aVHLT_HIMinimumBias_SinglePixelTrack_NpixGated_part18_v1
p1003
aVHLT_HIMinimumBias_SinglePixelTrack_NpixGated_part19_v1
p1004
aVHLT_HIMinimumBias_SinglePixelTrack_NpixGated_part1_v1
p1005
aVHLT_HIMinimumBias_SinglePixelTrack_NpixGated_part2_v1
p1006
aVHLT_HIMinimumBias_SinglePixelTrack_NpixGated_part3_v1
p1007
aVHLT_HIMinimumBias_SinglePixelTrack_NpixGated_part4_v1
p1008
aVHLT_HIMinimumBias_SinglePixelTrack_NpixGated_part5_v1
p1009
aVHLT_HIMinimumBias_SinglePixelTrack_NpixGated_part6_v1
p1010
aVHLT_HIMinimumBias_SinglePixelTrack_NpixGated_part7_v1
p1011
aVHLT_HIMinimumBias_SinglePixelTrack_NpixGated_part8_v1
p1012
aVHLT_HIMinimumBias_SinglePixelTrack_NpixGated_part9_v1
p1013
aVHLT_HIMinimumBias_SinglePixelTrack_part0_v1
p1014
aVHLT_HIMinimumBias_SinglePixelTrack_part10_v1
p1015
aVHLT_HIMinimumBias_SinglePixelTrack_part11_v1
p1016
aVHLT_HIMinimumBias_SinglePixelTrack_part12_v1
p1017
aVHLT_HIMinimumBias_SinglePixelTrack_part13_v1
p1018
aVHLT_HIMinimumBias_SinglePixelTrack_part14_v1
p1019
aVHLT_HIMinimumBias_SinglePixelTrack_part15_v1
p1020
aVHLT_HIMinimumBias_SinglePixelTrack_part16_v1
p1021
aVHLT_HIMinimumBias_SinglePixelTrack_part17_v1
p1022
aVHLT_HIMinimumBias_SinglePixelTrack_part18_v1
p1023
aVHLT_HIMinimumBias_SinglePixelTrack_part19_v1
p1024
aVHLT_HIMinimumBias_SinglePixelTrack_part1_v1
p1025
aVHLT_HIMinimumBias_SinglePixelTrack_part2_v1
p1026
aVHLT_HIMinimumBias_SinglePixelTrack_part3_v1
p1027
aVHLT_HIMinimumBias_SinglePixelTrack_part4_v1
p1028
aVHLT_HIMinimumBias_SinglePixelTrack_part5_v1
p1029
aVHLT_HIMinimumBias_SinglePixelTrack_part6_v1
p1030
aVHLT_HIMinimumBias_SinglePixelTrack_part7_v1
p1031
aVHLT_HIMinimumBias_SinglePixelTrack_part8_v1
p1032
aVHLT_HIMinimumBias_SinglePixelTrack_part9_v1
p1033
aVHLT_HIMinimumBias_part0_v1
p1034
aVHLT_HIMinimumBias_part10_v1
p1035
aVHLT_HIMinimumBias_part10_v6
p1036
aVHLT_HIMinimumBias_part11_v1
p1037
aVHLT_HIMinimumBias_part11_v6
p1038
aVHLT_HIMinimumBias_part12_v1
p1039
aVHLT_HIMinimumBias_part12_v7
p1040
aVHLT_HIMinimumBias_part13_v1
p1041
aVHLT_HIMinimumBias_part13_v7
p1042
aVHLT_HIMinimumBias_part14_v1
p1043
aVHLT_HIMinimumBias_part14_v8
p1044
aVHLT_HIMinimumBias_part15_v1
p1045
aVHLT_HIMinimumBias_part15_v8
p1046
aVHLT_HIMinimumBias_part16_v1
p1047
aVHLT_HIMinimumBias_part16_v9
p1048
aVHLT_HIMinimumBias_part17_v1
p1049
aVHLT_HIMinimumBias_part17_v9
p1050
aVHLT_HIMinimumBias_part18_v1
p1051
aVHLT_HIMinimumBias_part18_v10
p1052
aVHLT_HIMinimumBias_part18_v11
p1053
aVHLT_HIMinimumBias_part19_v1
p1054
aVHLT_HIMinimumBias_part19_v10
p1055
aVHLT_HIMinimumBias_part19_v11
p1056
aVHLT_HIMinimumBias_part1_v1
p1057
aVHLT_HIMinimumBias_part20_v1
p1058
aVHLT_HIMinimumBias_part21_v1
p1059
aVHLT_HIMinimumBias_part22_v1
p1060
aVHLT_HIMinimumBias_part23_v1
p1061
aVHLT_HIMinimumBias_part24_v1
p1062
aVHLT_HIMinimumBias_part25_v1
p1063
aVHLT_HIMinimumBias_part2_v1
p1064
aVHLT_HIMinimumBias_part2_v2
p1065
aVHLT_HIMinimumBias_part3_v1
p1066
aVHLT_HIMinimumBias_part3_v2
p1067
aVHLT_HIMinimumBias_part4_v1
p1068
aVHLT_HIMinimumBias_part4_v3
p1069
aVHLT_HIMinimumBias_part5_v1
p1070
aVHLT_HIMinimumBias_part5_v3
p1071
aVHLT_HIMinimumBias_part6_v1
p1072
aVHLT_HIMinimumBias_part6_v4
p1073
aVHLT_HIMinimumBias_part7_v1
p1074
aVHLT_HIMinimumBias_part7_v4
p1075
aVHLT_HIMinimumBias_part8_v1
p1076
aVHLT_HIMinimumBias_part8_v5
p1077
aVHLT_HIMinimumBias_part9_v1
p1078
aVHLT_HIMinimumBias_part9_v5
p1079
aVHLT_HIPhysicsForZS_v1
p1080
aVHLT_HIPhysics_v1
p1081
aVHLT_HIPuAK4CaloJet100Eta2p4_CSVv2WP0p75_v1
p1082
aVHLT_HIPuAK4CaloJet100Eta2p4_CSVv2WP0p8_v1
p1083
aVHLT_HIPuAK4CaloJet100Eta2p4_DeepCSV0p4_v1
p1084
aVHLT_HIPuAK4CaloJet100Eta2p4_DeepCSV0p71_v1
p1085
aVHLT_HIPuAK4CaloJet100Eta5p1_Centrality_30_100_v1
p1086
aVHLT_HIPuAK4CaloJet100Eta5p1_Centrality_50_100_v1
p1087
aVHLT_HIPuAK4CaloJet100Eta5p1_v1
p1088
aVHLT_HIPuAK4CaloJet100Fwd_v1
p1089
aVHLT_HIPuAK4CaloJet100_35_Eta0p7_v1
p1090
aVHLT_HIPuAK4CaloJet100_35_Eta1p1_v1
p1091
aVHLT_HIPuAK4CaloJet120Eta5p1_v1
p1092
aVHLT_HIPuAK4CaloJet120Fwd_v1
p1093
aVHLT_HIPuAK4CaloJet40Eta5p1_Centrality_30_100_v1
p1094
aVHLT_HIPuAK4CaloJet40Eta5p1_Centrality_50_100_v1
p1095
aVHLT_HIPuAK4CaloJet40Eta5p1_v1
p1096
aVHLT_HIPuAK4CaloJet40Fwd_v1
p1097
aVHLT_HIPuAK4CaloJet60Eta2p4_CSVv2WP0p75_v1
p1098
aVHLT_HIPuAK4CaloJet60Eta2p4_CSVv2WP0p8_v1
p1099
aVHLT_HIPuAK4CaloJet60Eta2p4_DeepCSV0p4_v1
p1100
aVHLT_HIPuAK4CaloJet60Eta2p4_DeepCSV0p71_v1
p1101
aVHLT_HIPuAK4CaloJet60Eta5p1_Centrality_30_100_v1
p1102
aVHLT_HIPuAK4CaloJet60Eta5p1_Centrality_50_100_v1
p1103
aVHLT_HIPuAK4CaloJet60Eta5p1_v1
p1104
aVHLT_HIPuAK4CaloJet60Fwd_v1
p1105
aVHLT_HIPuAK4CaloJet80Eta2p4_CSVv2WP0p75_v1
p1106
aVHLT_HIPuAK4CaloJet80Eta2p4_CSVv2WP0p8_v1
p1107
aVHLT_HIPuAK4CaloJet80Eta2p4_DeepCSV0p4_v1
p1108
aVHLT_HIPuAK4CaloJet80Eta2p4_DeepCSV0p71_v1
p1109
aVHLT_HIPuAK4CaloJet80Eta5p1_Centrality_30_100_v1
p1110
aVHLT_HIPuAK4CaloJet80Eta5p1_Centrality_50_100_v1
p1111
aVHLT_HIPuAK4CaloJet80Eta5p1_v1
p1112
aVHLT_HIPuAK4CaloJet80Fwd_v1
p1113
aVHLT_HIPuAK4CaloJet80_35_Eta0p7_v1
p1114
aVHLT_HIPuAK4CaloJet80_35_Eta1p1_v1
p1115
aVHLT_HIPuAK4CaloJet80_45_45_Eta2p1_v1
p1116
aVHLT_HIRandom_v1
p1117
aVHLT_HIUPC_DoubleEG2_BptxAND_MaxPixelTrack_v1
p1118
aVHLT_HIUPC_DoubleEG2_BptxAND_SinglePixelTrack_MaxPixelTrack_v1
p1119
aVHLT_HIUPC_DoubleEG2_NotMBHF2AND_SinglePixelTrack_MaxPixelTrack_v1
p1120
aVHLT_HIUPC_DoubleEG2_NotMBHF2AND_SinglePixelTrack_v1
p1121
aVHLT_HIUPC_DoubleEG2_NotMBHF2AND_v1
p1122
aVHLT_HIUPC_DoubleEG2_NotMBHF2OR_SinglePixelTrack_MaxPixelTrack_v1
p1123
aVHLT_HIUPC_DoubleEG2_NotMBHF2OR_SinglePixelTrack_v1
p1124
aVHLT_HIUPC_DoubleEG2_NotMBHF2OR_v1
p1125
aVHLT_HIUPC_DoubleEG5_BptxAND_MaxPixelTrack_v1
p1126
aVHLT_HIUPC_DoubleEG5_BptxAND_SinglePixelTrack_MaxPixelTrack_v1
p1127
aVHLT_HIUPC_DoubleEG5_NotMBHF2AND_SinglePixelTrack_MaxPixelTrack_v1
p1128
aVHLT_HIUPC_DoubleEG5_NotMBHF2AND_SinglePixelTrack_v1
p1129
aVHLT_HIUPC_DoubleEG5_NotMBHF2AND_v1
p1130
aVHLT_HIUPC_DoubleEG5_NotMBHF2OR_SinglePixelTrack_MaxPixelTrack_v1
p1131
aVHLT_HIUPC_DoubleEG5_NotMBHF2OR_SinglePixelTrack_v1
p1132
aVHLT_HIUPC_DoubleEG5_NotMBHF2OR_v1
p1133
aVHLT_HIUPC_DoubleMu0_BptxAND_MaxPixelTrack_v1
p1134
aVHLT_HIUPC_DoubleMu0_NotMBHF2AND_MaxPixelTrack_v1
p1135
aVHLT_HIUPC_DoubleMu0_NotMBHF2AND_v1
p1136
aVHLT_HIUPC_DoubleMu0_NotMBHF2OR_MaxPixelTrack_v1
p1137
aVHLT_HIUPC_DoubleMu0_NotMBHF2OR_v1
p1138
aVHLT_HIUPC_DoubleMuOpen_BptxAND_MaxPixelTrack_v1
p1139
aVHLT_HIUPC_DoubleMuOpen_NotMBHF2OR_MaxPixelTrack_v1
p1140
aVHLT_HIUPC_DoubleMuOpen_NotMBHF2OR_v1
p1141
aVHLT_HIUPC_ETT5_Asym50_NotMBHF2OR_SinglePixelTrack_v1
p1142
aVHLT_HIUPC_ETT5_Asym50_NotMBHF2OR_v1
p1143
aVHLT_HIUPC_Mu8_Mu13_MaxPixelTrack_v1
p1144
aVHLT_HIUPC_Mu8_Mu13_v1
p1145
aVHLT_HIUPC_NotMBHF2AND_SinglePixelTrack_MaxPixelTrack_v1
p1146
aVHLT_HIUPC_NotMBHF2AND_SinglePixelTrack_v1
p1147
aVHLT_HIUPC_NotMBHF2AND_v1
p1148
aVHLT_HIUPC_NotMBHF2OR_BptxAND_SinglePixelTrack_MaxPixelTrack_v1
p1149
aVHLT_HIUPC_NotMBHF2OR_BptxAND_SinglePixelTrack_v1
p1150
aVHLT_HIUPC_SingleEG3_BptxAND_MaxPixelTrack_v1
p1151
aVHLT_HIUPC_SingleEG3_BptxAND_SinglePixelTrack_MaxPixelTrack_v1
p1152
aVHLT_HIUPC_SingleEG3_NotMBHF2AND_SinglePixelTrack_MaxPixelTrack_v1
p1153
aVHLT_HIUPC_SingleEG3_NotMBHF2AND_SinglePixelTrack_v1
p1154
aVHLT_HIUPC_SingleEG3_NotMBHF2AND_v1
p1155
aVHLT_HIUPC_SingleEG3_NotMBHF2OR_SinglePixelTrack_MaxPixelTrack_v1
p1156
aVHLT_HIUPC_SingleEG3_NotMBHF2OR_SinglePixelTrack_v1
p1157
aVHLT_HIUPC_SingleEG3_NotMBHF2OR_v1
p1158
aVHLT_HIUPC_SingleEG5_BptxAND_MaxPixelTrack_v1
p1159
aVHLT_HIUPC_SingleEG5_BptxAND_SinglePixelTrack_MaxPixelTrack_v1
p1160
aVHLT_HIUPC_SingleEG5_NotMBHF2AND_SinglePixelTrack_MaxPixelTrack_v1
p1161
aVHLT_HIUPC_SingleEG5_NotMBHF2AND_SinglePixelTrack_v1
p1162
aVHLT_HIUPC_SingleEG5_NotMBHF2AND_v1
p1163
aVHLT_HIUPC_SingleEG5_NotMBHF2OR_SinglePixelTrack_MaxPixelTrack_v1
p1164
aVHLT_HIUPC_SingleEG5_NotMBHF2OR_SinglePixelTrack_v1
p1165
aVHLT_HIUPC_SingleEG5_NotMBHF2OR_v1
p1166
aVHLT_HIUPC_SingleMu0_BptxAND_MaxPixelTrack_v1
p1167
aVHLT_HIUPC_SingleMu0_NotMBHF2AND_MaxPixelTrack_v1
p1168
aVHLT_HIUPC_SingleMu0_NotMBHF2AND_v1
p1169
aVHLT_HIUPC_SingleMu0_NotMBHF2OR_MaxPixelTrack_v1
p1170
aVHLT_HIUPC_SingleMu0_NotMBHF2OR_v1
p1171
aVHLT_HIUPC_SingleMu3_BptxAND_MaxPixelTrack_v1
p1172
aVHLT_HIUPC_SingleMu3_NotMBHF2OR_MaxPixelTrack_v1
p1173
aVHLT_HIUPC_SingleMu3_NotMBHF2OR_v1
p1174
aVHLT_HIUPC_SingleMuOpen_BptxAND_MaxPixelTrack_v1
p1175
aVHLT_HIUPC_SingleMuOpen_NotMBHF2AND_MaxPixelTrack_v1
p1176
aVHLT_HIUPC_SingleMuOpen_NotMBHF2AND_v1
p1177
aVHLT_HIUPC_SingleMuOpen_NotMBHF2OR_MaxPixelTrack_v1
p1178
aVHLT_HIUPC_SingleMuOpen_NotMBHF2OR_v1
p1179
aVHLT_HIUPC_ZeroBias_MaxPixelCluster_v1
p1180
aVHLT_HIUPC_ZeroBias_SinglePixelTrack_v1
p1181
aVHLT_HIZeroBias_FirstCollisionAfterAbortGap_v1
p1182
aVHLT_HIZeroBias_v1
p1183
aVHLT_HI_CastorMuon_v1
p1184
aVHLT_HMinimumBias_part12_v1
p1185
aVHLT_HMinimumBias_part18_v1
p1186
aVHLT_HcalCalibration_v5
p1187
aVHLT_Mu8_Mu13_MaxPixelTrack_v1
p1188
aVHLT_Mu8_Mu13_v1
p1189
aVHLT_ZDCAND_MBHF1AND_BptxAND_v1
p1190
aVHLT_ZDCAND_MBHF1OR_BptxAND_v1
p1191
aVHLT_ZDCAND_MBHF2AND_BptxAND_v1
p1192
aVHLT_ZDCAND_MBHF2OR_BptxAND_v1
p1193
aVHLT_ZDCM_BptxAND_v1
p1194
aVHLT_ZDCM_ZDCP_BptxAND_v1
p1195
aVHLT_ZDCM_ZDCP_MBHF1AND_BptxAND_v1
p1196
aVHLT_ZDCM_v1
p1197
aVHLT_ZDCOR_MBHF1OR_BptxAND_v1
p1198
aVHLT_ZDCOR_MBHF2OR_BptxAND_v1
p1199
aVHLT_ZDCP_BptxAND_v1
p1200
aVHLT_ZDCP_v1
p1201
atp1202
Rp1203
(dp1204
g21
I00
sg48
I01
sg23
I00
sg223
I1
sbsg605
g0
(g192
g193
(lp1205
VL1_AlwaysTrue
p1206
aVL1_BPTX_AND_Ref1_VME
p1207
aVL1_BPTX_AND_Ref3_VME
p1208
aVL1_BPTX_AND_Ref4_VME
p1209
aVL1_BPTX_BeamGas_B1_VME
p1210
aVL1_BPTX_BeamGas_B2_VME
p1211
aVL1_BPTX_BeamGas_Ref1_VME
p1212
aVL1_BPTX_BeamGas_Ref2_VME
p1213
aVL1_BPTX_NotOR_VME
p1214
aVL1_BPTX_OR_Ref3_VME
p1215
aVL1_BPTX_OR_Ref4_VME
p1216
aVL1_BPTX_RefAND_VME
p1217
aVL1_BptxMinus
p1218
aVL1_BptxMinus_NotBptxPlus
p1219
aVL1_BptxOR
p1220
aVL1_BptxPlus
p1221
aVL1_BptxPlus_NotBptxMinus
p1222
aVL1_BptxXOR
p1223
aVL1_Castor1
p1224
aVL1_CastorHighJet
p1225
aVL1_CastorHighJet_BptxAND
p1226
aVL1_CastorHighJet_MinimumBiasHF1_OR_BptxAND
p1227
aVL1_CastorHighJet_NotMinimumBiasHF2_AND_BptxAND
p1228
aVL1_CastorHighJet_NotMinimumBiasHF2_OR_BptxAND
p1229
aVL1_CastorHighJet_OR_MinimumBiasHF1_AND_BptxAND
p1230
aVL1_CastorHighJet_OR_MinimumBiasHF2_AND_BptxAND
p1231
aVL1_CastorMediumJet
p1232
aVL1_CastorMediumJet_BptxAND
p1233
aVL1_CastorMediumJet_MinimumBiasHF1_OR_BptxAND
p1234
aVL1_CastorMediumJet_NotMinimumBiasHF2_AND_BptxAND
p1235
aVL1_CastorMediumJet_NotMinimumBiasHF2_OR_BptxAND
p1236
aVL1_CastorMediumJet_SingleEG5_MinimumBiasHF1_OR_BptxAND
p1237
aVL1_CastorMediumJet_SingleMu0_MinimumBiasHF1_OR_BptxAND
p1238
aVL1_CastorMuon
p1239
aVL1_CastorMuon_BptxAND
p1240
aVL1_Centrality_20_100_MinimumBiasHF1_AND_BptxAND
p1241
aVL1_Centrality_30_100
p1242
aVL1_Centrality_30_100_MinimumBiasHF1_AND_BptxAND
p1243
aVL1_Centrality_50_100
p1244
aVL1_Centrality_Saturation
p1245
aVL1_DoubleEG10_BptxAND
p1246
aVL1_DoubleEG2
p1247
aVL1_DoubleEG2_BptxAND
p1248
aVL1_DoubleEG2_NotMinimumBiasHF2_AND_BptxAND
p1249
aVL1_DoubleEG2_NotMinimumBiasHF2_OR_BptxAND
p1250
aVL1_DoubleEG5
p1251
aVL1_DoubleEG5_BptxAND
p1252
aVL1_DoubleEG5_NotMinimumBiasHF2_AND_BptxAND
p1253
aVL1_DoubleEG5_NotMinimumBiasHF2_OR_BptxAND
p1254
aVL1_DoubleEG8_BptxAND
p1255
aVL1_DoubleJet16And12_MidEta2p7_BptxAND
p1256
aVL1_DoubleJet16And12_MidEta2p7_Centrality_30_100_BptxAND
p1257
aVL1_DoubleJet16And12_MidEta2p7_Centrality_50_100_BptxAND
p1258
aVL1_DoubleJet16And8_MidEta2p7_BptxAND
p1259
aVL1_DoubleJet16And8_MidEta2p7_Centrality_30_100_BptxAND
p1260
aVL1_DoubleJet16And8_MidEta2p7_Centrality_50_100_BptxAND
p1261
aVL1_DoubleJet20And12_MidEta2p7_BptxAND
p1262
aVL1_DoubleJet20And12_MidEta2p7_Centrality_30_100_BptxAND
p1263
aVL1_DoubleJet20And12_MidEta2p7_Centrality_50_100_BptxAND
p1264
aVL1_DoubleJet20And8_MidEta2p7_BptxAND
p1265
aVL1_DoubleJet20And8_MidEta2p7_Centrality_30_100_BptxAND
p1266
aVL1_DoubleJet20And8_MidEta2p7_Centrality_50_100_BptxAND
p1267
aVL1_DoubleJet28And16_MidEta2p7_BptxAND
p1268
aVL1_DoubleJet28And16_MidEta2p7_Centrality_30_100_BptxAND
p1269
aVL1_DoubleJet28And16_MidEta2p7_Centrality_50_100_BptxAND
p1270
aVL1_DoubleMu0
p1271
aVL1_DoubleMu0_BptxAND
p1272
aVL1_DoubleMu0_Centrality_10_100_MinimumBiasHF1_AND_BptxAND
p1273
aVL1_DoubleMu0_Centrality_30_100_MinimumBiasHF1_AND_BptxAND
p1274
aVL1_DoubleMu0_Centrality_50_100_MinimumBiasHF1_AND_BptxAND
p1275
aVL1_DoubleMu0_Mass_Min1
p1276
aVL1_DoubleMu0_MinimumBiasHF1_AND_BptxAND
p1277
aVL1_DoubleMu0_NotMinimumBiasHF2_AND_BptxAND
p1278
aVL1_DoubleMu0_NotMinimumBiasHF2_OR_BptxAND
p1279
aVL1_DoubleMu0_SQ
p1280
aVL1_DoubleMu0_SQ_OS
p1281
aVL1_DoubleMu10_BptxAND
p1282
aVL1_DoubleMuOpen
p1283
aVL1_DoubleMuOpen_BptxAND
p1284
aVL1_DoubleMuOpen_Centrality_10_100_BptxAND
p1285
aVL1_DoubleMuOpen_Centrality_30_100_BptxAND
p1286
aVL1_DoubleMuOpen_Centrality_40_100_BptxAND
p1287
aVL1_DoubleMuOpen_Centrality_50_100_BptxAND
p1288
aVL1_DoubleMuOpen_MaxDr2p0_BptxAND
p1289
aVL1_DoubleMuOpen_MaxDr2p0_OS_BptxAND
p1290
aVL1_DoubleMuOpen_MaxDr3p5
p1291
aVL1_DoubleMuOpen_MaxDr3p5_BptxAND
p1292
aVL1_DoubleMuOpen_NotMinimumBiasHF2_AND_BptxAND
p1293
aVL1_DoubleMuOpen_NotMinimumBiasHF2_OR_BptxAND
p1294
aVL1_DoubleMuOpen_OS
p1295
aVL1_DoubleMuOpen_OS_BptxAND
p1296
aVL1_DoubleMuOpen_SS
p1297
aVL1_DoubleMuOpen_SS_BptxAND
p1298
aVL1_ETMHF100
p1299
aVL1_ETMHF100_HTT60er
p1300
aVL1_ETMHF120
p1301
aVL1_ETMHF120_HTT60er
p1302
aVL1_ETT10_ETTAsym50_MinimumBiasHF1_OR_BptxAND
p1303
aVL1_ETT10_ETTAsym55_MinimumBiasHF1_OR_BptxAND
p1304
aVL1_ETT10_ETTAsym60_MinimumBiasHF1_OR_BptxAND
p1305
aVL1_ETT10_ETTAsym65_MinimumBiasHF1_OR_BptxAND
p1306
aVL1_ETT10_ETTAsym70_MinimumBiasHF1_OR_BptxAND
p1307
aVL1_ETT10_ETTAsym80_MinimumBiasHF1_OR_BptxAND
p1308
aVL1_ETT1200
p1309
aVL1_ETT1600
p1310
aVL1_ETT2000
p1311
aVL1_ETT35_NotETT80_BptxAND
p1312
aVL1_ETT40_NotETT95_BptxAND
p1313
aVL1_ETT45_NotETT110_BptxAND
p1314
aVL1_ETT5
p1315
aVL1_ETT50_ETTAsym40_MinimumBiasHF2_OR_BptxAND
p1316
aVL1_ETT50_ETTAsym40_NotMinimumBiasHF2_OR_BptxAND
p1317
aVL1_ETT50_ETTAsym50_MinimumBiasHF2_OR_BptxAND
p1318
aVL1_ETT50_ETTAsym50_NotMinimumBiasHF2_OR_BptxAND
p1319
aVL1_ETT50_ETTAsym55_MinimumBiasHF2_OR_BptxAND
p1320
aVL1_ETT50_ETTAsym60_MinimumBiasHF2_OR_BptxAND
p1321
aVL1_ETT50_ETTAsym60_NotMinimumBiasHF2_OR_BptxAND
p1322
aVL1_ETT50_ETTAsym65_MinimumBiasHF2_OR_BptxAND
p1323
aVL1_ETT50_ETTAsym70_MinimumBiasHF2_OR_BptxAND
p1324
aVL1_ETT50_ETTAsym70_NotMinimumBiasHF2_OR_BptxAND
p1325
aVL1_ETT50_ETTAsym80_MinimumBiasHF2_OR_BptxAND
p1326
aVL1_ETT50_ETTAsym80_NotMinimumBiasHF2_OR_BptxAND
p1327
aVL1_ETT50_NotETT120_BptxAND
p1328
aVL1_ETT55_NotETT130_BptxAND
p1329
aVL1_ETT5_BptxAND
p1330
aVL1_ETT5_ETTAsym40_BptxAND
p1331
aVL1_ETT5_ETTAsym40_MinimumBiasHF1_OR_BptxAND
p1332
aVL1_ETT5_ETTAsym40_NotMinimumBiasHF2_OR_BptxAND
p1333
aVL1_ETT5_ETTAsym50_BptxAND
p1334
aVL1_ETT5_ETTAsym50_MinimumBiasHF1_OR_BptxAND
p1335
aVL1_ETT5_ETTAsym50_NotMinimumBiasHF2_OR_BptxAND
p1336
aVL1_ETT5_ETTAsym55_MinimumBiasHF1_OR_BptxAND
p1337
aVL1_ETT5_ETTAsym60_BptxAND
p1338
aVL1_ETT5_ETTAsym60_MinimumBiasHF1_OR_BptxAND
p1339
aVL1_ETT5_ETTAsym60_NotMinimumBiasHF2_OR_BptxAND
p1340
aVL1_ETT5_ETTAsym65_MinimumBiasHF1_OR_BptxAND
p1341
aVL1_ETT5_ETTAsym70_BptxAND
p1342
aVL1_ETT5_ETTAsym70_MinimumBiasHF1_OR_BptxAND
p1343
aVL1_ETT5_ETTAsym70_NotMinimumBiasHF2_OR_BptxAND
p1344
aVL1_ETT5_ETTAsym80_BptxAND
p1345
aVL1_ETT5_ETTAsym80_MinimumBiasHF1_OR_BptxAND
p1346
aVL1_ETT5_ETTAsym80_NotMinimumBiasHF2_OR_BptxAND
p1347
aVL1_ETT5_MinimumBiasHF1_OR_BptxAND
p1348
aVL1_ETT5_NotETT30_BptxAND
p1349
aVL1_ETT5_NotMinimumBiasHF2_OR
p1350
aVL1_ETT60_ETTAsym60_MinimumBiasHF2_OR_BptxAND
p1351
aVL1_ETT60_ETTAsym65_MinimumBiasHF2_OR_BptxAND
p1352
aVL1_ETT65_ETTAsym70_MinimumBiasHF2_OR_BptxAND
p1353
aVL1_ETT65_ETTAsym80_MinimumBiasHF2_OR_BptxAND
p1354
aVL1_ETT8_ETTAsym50_MinimumBiasHF1_OR_BptxAND
p1355
aVL1_ETT8_ETTAsym55_MinimumBiasHF1_OR_BptxAND
p1356
aVL1_ETT8_ETTAsym60_MinimumBiasHF1_OR_BptxAND
p1357
aVL1_ETT8_ETTAsym65_MinimumBiasHF1_OR_BptxAND
p1358
aVL1_ETT8_ETTAsym70_MinimumBiasHF1_OR_BptxAND
p1359
aVL1_ETT8_ETTAsym80_MinimumBiasHF1_OR_BptxAND
p1360
aVL1_ETTAsym40
p1361
aVL1_ETTAsym40_BptxAND
p1362
aVL1_ETTAsym40_MinimumBiasHF1_OR_BptxAND
p1363
aVL1_ETTAsym40_NotMinimumBiasHF2_OR_BptxAND
p1364
aVL1_ETTAsym50
p1365
aVL1_ETTAsym50_BptxAND
p1366
aVL1_ETTAsym50_MinimumBiasHF1_OR_BptxAND
p1367
aVL1_ETTAsym50_NotMinimumBiasHF2_OR_BptxAND
p1368
aVL1_ETTAsym60
p1369
aVL1_ETTAsym60_BptxAND
p1370
aVL1_ETTAsym60_MinimumBiasHF1_OR_BptxAND
p1371
aVL1_ETTAsym60_NotMinimumBiasHF2_OR_BptxAND
p1372
aVL1_ETTAsym70
p1373
aVL1_ETTAsym70_BptxAND
p1374
aVL1_ETTAsym70_MinimumBiasHF1_OR_BptxAND
p1375
aVL1_ETTAsym70_NotMinimumBiasHF2_OR_BptxAND
p1376
aVL1_ETTAsym80
p1377
aVL1_ETTAsym80_BptxAND
p1378
aVL1_ETTAsym80_MinimumBiasHF1_OR_BptxAND
p1379
aVL1_ETTAsym80_NotMinimumBiasHF2_OR_BptxAND
p1380
aVL1_FirstBunchAfterTrain
p1381
aVL1_FirstBunchBeforeTrain
p1382
aVL1_FirstBunchInTrain
p1383
aVL1_FirstCollisionInOrbit
p1384
aVL1_FirstCollisionInOrbit_Centrality30_100_BptxAND
p1385
aVL1_FirstCollisionInTrain
p1386
aVL1_HCAL_LaserMon_Trig
p1387
aVL1_HCAL_LaserMon_Veto
p1388
aVL1_HTT120er
p1389
aVL1_HTT200er
p1390
aVL1_HTT280er
p1391
aVL1_HTT360er
p1392
aVL1_HTT450er
p1393
aVL1_IsolatedBunch
p1394
aVL1_LastBunchInTrain
p1395
aVL1_LastCollisionInTrain
p1396
aVL1_MinimumBiasHF0_AND_BptxAND
p1397
aVL1_MinimumBiasHF0_OR_BptxAND
p1398
aVL1_MinimumBiasHF1_AND
p1399
aVL1_MinimumBiasHF1_AND_BptxAND
p1400
aVL1_MinimumBiasHF1_AND_OR_ETT10_BptxAND
p1401
aVL1_MinimumBiasHF1_OR
p1402
aVL1_MinimumBiasHF1_OR_BptxAND
p1403
aVL1_MinimumBiasHF1_XOR_BptxAND
p1404
aVL1_MinimumBiasHF2_AND
p1405
aVL1_MinimumBiasHF2_AND_BptxAND
p1406
aVL1_MinimumBiasHF2_OR
p1407
aVL1_MinimumBiasHF2_OR_BptxAND
p1408
aVL1_NotBptxOR
p1409
aVL1_NotETT100_MinimumBiasHF1_AND_BptxAND
p1410
aVL1_NotETT110_MinimumBiasHF1_OR_BptxAND
p1411
aVL1_NotETT110_MinimumBiasHF2_OR_BptxAND
p1412
aVL1_NotETT150_MinimumBiasHF1_AND_BptxAND
p1413
aVL1_NotETT150_MinimumBiasHF1_OR_BptxAND
p1414
aVL1_NotETT150_MinimumBiasHF2_OR_BptxAND
p1415
aVL1_NotETT200_MinimumBiasHF1_AND_BptxAND
p1416
aVL1_NotETT20_MinimumBiasHF1_AND_BptxAND
p1417
aVL1_NotETT20_MinimumBiasHF1_OR_BptxAND
p1418
aVL1_NotETT20_MinimumBiasHF2_OR_BptxAND
p1419
aVL1_NotETT80_MinimumBiasHF1_AND_BptxAND
p1420
aVL1_NotETT80_MinimumBiasHF1_OR_BptxAND
p1421
aVL1_NotETT80_MinimumBiasHF2_OR_BptxAND
p1422
aVL1_NotETT95_MinimumBiasHF1_AND_BptxAND
p1423
aVL1_NotETT95_MinimumBiasHF1_OR_BptxAND
p1424
aVL1_NotETT95_MinimumBiasHF2_OR_BptxAND
p1425
aVL1_NotMinimumBiasHF0_AND_BptxAND
p1426
aVL1_NotMinimumBiasHF0_AND_BptxAND_TOTEM_1
p1427
aVL1_NotMinimumBiasHF0_AND_BptxAND_TOTEM_2
p1428
aVL1_NotMinimumBiasHF0_AND_BptxAND_TOTEM_4
p1429
aVL1_NotMinimumBiasHF0_OR_BptxAND
p1430
aVL1_NotMinimumBiasHF0_OR_BptxAND_TOTEM_1
p1431
aVL1_NotMinimumBiasHF0_OR_BptxAND_TOTEM_2
p1432
aVL1_NotMinimumBiasHF0_OR_BptxAND_TOTEM_4
p1433
aVL1_NotMinimumBiasHF1_AND
p1434
aVL1_NotMinimumBiasHF1_OR
p1435
aVL1_NotMinimumBiasHF1_OR_BptxAND
p1436
aVL1_NotMinimumBiasHF2_AND
p1437
aVL1_NotMinimumBiasHF2_AND_BptxAND
p1438
aVL1_NotMinimumBiasHF2_OR
p1439
aVL1_NotMinimumBiasHF2_OR_BptxAND
p1440
aVL1_SecondBunchInTrain
p1441
aVL1_SecondLastBunchInTrain
p1442
aVL1_SingleEG10er2p5
p1443
aVL1_SingleEG12_BptxAND
p1444
aVL1_SingleEG12_SingleJet28_MidEta2p7_BptxAND
p1445
aVL1_SingleEG12_SingleJet28_MidEta2p7_MinDr0p4_BptxAND
p1446
aVL1_SingleEG12_SingleJet32_MidEta2p7_BptxAND
p1447
aVL1_SingleEG12_SingleJet40_MidEta2p7_BptxAND
p1448
aVL1_SingleEG12_SingleJet44_MidEta2p7_BptxAND
p1449
aVL1_SingleEG12_SingleJet44_MidEta2p7_MinDr0p4_BptxAND
p1450
aVL1_SingleEG12_SingleJet56_MidEta2p7_BptxAND
p1451
aVL1_SingleEG12_SingleJet56_MidEta2p7_MinDr0p4_BptxAND
p1452
aVL1_SingleEG12_SingleJet60_MidEta2p7_BptxAND
p1453
aVL1_SingleEG12_SingleJet60_MidEta2p7_MinDr0p4_BptxAND
p1454
aVL1_SingleEG15_BptxAND
p1455
aVL1_SingleEG15_Centrality_30_100_BptxAND
p1456
aVL1_SingleEG15_Centrality_50_100_BptxAND
p1457
aVL1_SingleEG15_SingleJet28_MidEta2p7_BptxAND
p1458
aVL1_SingleEG15_SingleJet28_MidEta2p7_MinDr0p4_BptxAND
p1459
aVL1_SingleEG15_SingleJet44_MidEta2p7_BptxAND
p1460
aVL1_SingleEG15_SingleJet44_MidEta2p7_MinDr0p4_BptxAND
p1461
aVL1_SingleEG15_SingleJet56_MidEta2p7_BptxAND
p1462
aVL1_SingleEG15_SingleJet56_MidEta2p7_MinDr0p4_BptxAND
p1463
aVL1_SingleEG15_SingleJet60_MidEta2p7_BptxAND
p1464
aVL1_SingleEG15_SingleJet60_MidEta2p7_MinDr0p4_BptxAND
p1465
aVL1_SingleEG15er2p5
p1466
aVL1_SingleEG21_BptxAND
p1467
aVL1_SingleEG21_Centrality_30_100_BptxAND
p1468
aVL1_SingleEG21_Centrality_50_100_BptxAND
p1469
aVL1_SingleEG26er2p5
p1470
aVL1_SingleEG3
p1471
aVL1_SingleEG30_BptxAND
p1472
aVL1_SingleEG3_BptxAND
p1473
aVL1_SingleEG3_Centrality_30_100_BptxAND
p1474
aVL1_SingleEG3_Centrality_50_100_BptxAND
p1475
aVL1_SingleEG3_NotMinimumBiasHF2_AND_BptxAND
p1476
aVL1_SingleEG3_NotMinimumBiasHF2_OR_BptxAND
p1477
aVL1_SingleEG5
p1478
aVL1_SingleEG50
p1479
aVL1_SingleEG5_BptxAND
p1480
aVL1_SingleEG5_NotMinimumBiasHF2_AND_BptxAND
p1481
aVL1_SingleEG5_NotMinimumBiasHF2_OR_BptxAND
p1482
aVL1_SingleEG5_SingleJet28_MidEta2p7_BptxAND
p1483
aVL1_SingleEG5_SingleJet32_MidEta2p7_BptxAND
p1484
aVL1_SingleEG5_SingleJet40_MidEta2p7_BptxAND
p1485
aVL1_SingleEG7_BptxAND
p1486
aVL1_SingleEG7_Centrality_30_100_BptxAND
p1487
aVL1_SingleEG7_Centrality_50_100_BptxAND
p1488
aVL1_SingleEG7_SingleJet28_MidEta2p7_BptxAND
p1489
aVL1_SingleEG7_SingleJet28_MidEta2p7_MinDr0p4_BptxAND
p1490
aVL1_SingleEG7_SingleJet32_MidEta2p7_BptxAND
p1491
aVL1_SingleEG7_SingleJet40_MidEta2p7_BptxAND
p1492
aVL1_SingleEG7_SingleJet44_MidEta2p7_BptxAND
p1493
aVL1_SingleEG7_SingleJet44_MidEta2p7_MinDr0p4_BptxAND
p1494
aVL1_SingleEG7_SingleJet56_MidEta2p7_BptxAND
p1495
aVL1_SingleEG7_SingleJet56_MidEta2p7_MinDr0p4_BptxAND
p1496
aVL1_SingleEG7_SingleJet60_MidEta2p7_BptxAND
p1497
aVL1_SingleEG7_SingleJet60_MidEta2p7_MinDr0p4_BptxAND
p1498
aVL1_SingleEG8er2p5
p1499
aVL1_SingleIsoEG12_BptxAND
p1500
aVL1_SingleIsoEG15_BptxAND
p1501
aVL1_SingleIsoEG21_BptxAND
p1502
aVL1_SingleIsoEG3_BptxAND
p1503
aVL1_SingleIsoEG7_BptxAND
p1504
aVL1_SingleJet120
p1505
aVL1_SingleJet120_FWD3p0
p1506
aVL1_SingleJet120er2p5
p1507
aVL1_SingleJet16_BptxAND
p1508
aVL1_SingleJet16_Centrality_30_100_BptxAND
p1509
aVL1_SingleJet16_Centrality_50_100_BptxAND
p1510
aVL1_SingleJet16_FWD_BptxAND
p1511
aVL1_SingleJet16_FWD_Centrality_30_100_BptxAND
p1512
aVL1_SingleJet16_FWD_Centrality_50_100_BptxAND
p1513
aVL1_SingleJet180er2p5
p1514
aVL1_SingleJet200
p1515
aVL1_SingleJet24_BptxAND
p1516
aVL1_SingleJet24_Centrality_30_100_BptxAND
p1517
aVL1_SingleJet24_Centrality_50_100_BptxAND
p1518
aVL1_SingleJet28_BptxAND
p1519
aVL1_SingleJet28_Centrality_30_100_BptxAND
p1520
aVL1_SingleJet28_Centrality_50_100_BptxAND
p1521
aVL1_SingleJet28_FWD_BptxAND
p1522
aVL1_SingleJet28_FWD_Centrality_30_100_BptxAND
p1523
aVL1_SingleJet28_FWD_Centrality_50_100_BptxAND
p1524
aVL1_SingleJet32_BptxAND
p1525
aVL1_SingleJet32_Centrality_30_100_BptxAND
p1526
aVL1_SingleJet32_Centrality_50_100_BptxAND
p1527
aVL1_SingleJet35
p1528
aVL1_SingleJet35_FWD3p0
p1529
aVL1_SingleJet35er2p5
p1530
aVL1_SingleJet36_BptxAND
p1531
aVL1_SingleJet36_Centrality_30_100_BptxAND
p1532
aVL1_SingleJet36_Centrality_50_100_BptxAND
p1533
aVL1_SingleJet36_FWD_BptxAND
p1534
aVL1_SingleJet36_FWD_Centrality_30_100_BptxAND
p1535
aVL1_SingleJet36_FWD_Centrality_50_100_BptxAND
p1536
aVL1_SingleJet40_BptxAND
p1537
aVL1_SingleJet40_Centrality_30_100_BptxAND
p1538
aVL1_SingleJet40_Centrality_50_100_BptxAND
p1539
aVL1_SingleJet44_BptxAND
p1540
aVL1_SingleJet44_Centrality_30_100_BptxAND
p1541
aVL1_SingleJet44_Centrality_50_100_BptxAND
p1542
aVL1_SingleJet44_FWD_BptxAND
p1543
aVL1_SingleJet44_FWD_Centrality_30_100_BptxAND
p1544
aVL1_SingleJet44_FWD_Centrality_50_100_BptxAND
p1545
aVL1_SingleJet48_BptxAND
p1546
aVL1_SingleJet48_Centrality_30_100_BptxAND
p1547
aVL1_SingleJet48_Centrality_50_100_BptxAND
p1548
aVL1_SingleJet56_BptxAND
p1549
aVL1_SingleJet56_Centrality_30_100_BptxAND
p1550
aVL1_SingleJet56_Centrality_50_100_BptxAND
p1551
aVL1_SingleJet56_FWD_BptxAND
p1552
aVL1_SingleJet56_FWD_Centrality_30_100_BptxAND
p1553
aVL1_SingleJet56_FWD_Centrality_50_100_BptxAND
p1554
aVL1_SingleJet60
p1555
aVL1_SingleJet60_BptxAND
p1556
aVL1_SingleJet60_Centrality_30_100_BptxAND
p1557
aVL1_SingleJet60_Centrality_50_100_BptxAND
p1558
aVL1_SingleJet60_FWD3p0
p1559
aVL1_SingleJet60er2p5
p1560
aVL1_SingleJet64_BptxAND
p1561
aVL1_SingleJet64_Centrality_30_100_BptxAND
p1562
aVL1_SingleJet64_Centrality_50_100_BptxAND
p1563
aVL1_SingleJet64_FWD_BptxAND
p1564
aVL1_SingleJet64_FWD_Centrality_30_100_BptxAND
p1565
aVL1_SingleJet64_FWD_Centrality_50_100_BptxAND
p1566
aVL1_SingleJet72_BptxAND
p1567
aVL1_SingleJet8
p1568
aVL1_SingleJet80_BptxAND
p1569
aVL1_SingleJet8_BptxAND
p1570
aVL1_SingleJet8_Centrality_30_100_BptxAND
p1571
aVL1_SingleJet8_Centrality_50_100_BptxAND
p1572
aVL1_SingleJet8_FWD_BptxAND
p1573
aVL1_SingleJet8_FWD_Centrality_30_100_BptxAND
p1574
aVL1_SingleJet8_FWD_Centrality_50_100_BptxAND
p1575
aVL1_SingleJet90
p1576
aVL1_SingleJet90_FWD3p0
p1577
aVL1_SingleJet90er2p5
p1578
aVL1_SingleMu0
p1579
aVL1_SingleMu0_BMTF
p1580
aVL1_SingleMu0_BptxAND
p1581
aVL1_SingleMu0_DQ
p1582
aVL1_SingleMu0_EMTF
p1583
aVL1_SingleMu0_NotMinimumBiasHF2_AND_BptxAND
p1584
aVL1_SingleMu0_NotMinimumBiasHF2_OR_BptxAND
p1585
aVL1_SingleMu0_OMTF
p1586
aVL1_SingleMu12
p1587
aVL1_SingleMu12_BptxAND
p1588
aVL1_SingleMu12_DQ_BMTF
p1589
aVL1_SingleMu12_DQ_EMTF
p1590
aVL1_SingleMu12_DQ_OMTF
p1591
aVL1_SingleMu12_MinimumBiasHF1_AND_BptxAND
p1592
aVL1_SingleMu12_SingleEG7_BptxAND
p1593
aVL1_SingleMu16
p1594
aVL1_SingleMu16_BptxAND
p1595
aVL1_SingleMu16_MinimumBiasHF1_AND_BptxAND
p1596
aVL1_SingleMu22
p1597
aVL1_SingleMu22_BMTF
p1598
aVL1_SingleMu22_EMTF
p1599
aVL1_SingleMu22_OMTF
p1600
aVL1_SingleMu3
p1601
aVL1_SingleMu3Open_BptxAND
p1602
aVL1_SingleMu3_BptxAND
p1603
aVL1_SingleMu3_Centrality_70_100_BptxAND
p1604
aVL1_SingleMu3_Centrality_80_100_BptxAND
p1605
aVL1_SingleMu3_MinimumBiasHF1_AND_BptxAND
p1606
aVL1_SingleMu3_NotMinimumBiasHF2_OR_BptxAND
p1607
aVL1_SingleMu3_SingleEG12_BptxAND
p1608
aVL1_SingleMu3_SingleEG15_BptxAND
p1609
aVL1_SingleMu3_SingleEG20_BptxAND
p1610
aVL1_SingleMu3_SingleEG30_BptxAND
p1611
aVL1_SingleMu3_SingleJet28_MidEta2p7_BptxAND
p1612
aVL1_SingleMu3_SingleJet32_MidEta2p7_BptxAND
p1613
aVL1_SingleMu3_SingleJet40_MidEta2p7_BptxAND
p1614
aVL1_SingleMu5
p1615
aVL1_SingleMu5_BptxAND
p1616
aVL1_SingleMu5_MinimumBiasHF1_AND_BptxAND
p1617
aVL1_SingleMu5_SingleEG10_BptxAND
p1618
aVL1_SingleMu5_SingleEG12_BptxAND
p1619
aVL1_SingleMu5_SingleEG15_BptxAND
p1620
aVL1_SingleMu5_SingleEG20_BptxAND
p1621
aVL1_SingleMu7
p1622
aVL1_SingleMu7_BptxAND
p1623
aVL1_SingleMu7_DQ
p1624
aVL1_SingleMu7_MinimumBiasHF1_AND_BptxAND
p1625
aVL1_SingleMu7_SingleEG10_BptxAND
p1626
aVL1_SingleMu7_SingleEG12_BptxAND
p1627
aVL1_SingleMu7_SingleEG15_BptxAND
p1628
aVL1_SingleMu7_SingleEG7_BptxAND
p1629
aVL1_SingleMuCosmics
p1630
aVL1_SingleMuCosmics_BMTF
p1631
aVL1_SingleMuCosmics_EMTF
p1632
aVL1_SingleMuCosmics_OMTF
p1633
aVL1_SingleMuOpen
p1634
aVL1_SingleMuOpen_BptxAND
p1635
aVL1_SingleMuOpen_Centrality_70_100_BptxAND
p1636
aVL1_SingleMuOpen_Centrality_70_100_MinimumBiasHF1_AND_BptxAND
p1637
aVL1_SingleMuOpen_Centrality_80_100_BptxAND
p1638
aVL1_SingleMuOpen_Centrality_80_100_MinimumBiasHF1_AND_BptxAND
p1639
aVL1_SingleMuOpen_NotMinimumBiasHF2_AND_BptxAND
p1640
aVL1_SingleMuOpen_NotMinimumBiasHF2_OR_BptxAND
p1641
aVL1_SingleMuOpen_SingleEG15_BptxAND
p1642
aVL1_SingleMuOpen_SingleJet28_MidEta2p7_BptxAND
p1643
aVL1_SingleMuOpen_SingleJet44_MidEta2p7_BptxAND
p1644
aVL1_SingleMuOpen_SingleJet56_MidEta2p7_BptxAND
p1645
aVL1_SingleMuOpen_SingleJet64_MidEta2p7_BptxAND
p1646
aVL1_TOTEM_1
p1647
aVL1_TOTEM_2
p1648
aVL1_TOTEM_3
p1649
aVL1_TOTEM_4
p1650
aVL1_UnpairedBunchBptxMinus
p1651
aVL1_UnpairedBunchBptxPlus
p1652
aVL1_ZDCM
p1653
aVL1_ZDCM_BptxAND
p1654
aVL1_ZDCM_ZDCP_BptxAND
p1655
aVL1_ZDCP
p1656
aVL1_ZDCP_BptxAND
p1657
aVL1_ZDC_AND_OR_MinimumBiasHF1_AND_BptxAND
p1658
aVL1_ZDC_AND_OR_MinimumBiasHF1_OR_BptxAND
p1659
aVL1_ZDC_AND_OR_MinimumBiasHF2_AND_BptxAND
p1660
aVL1_ZDC_AND_OR_MinimumBiasHF2_OR_BptxAND
p1661
aVL1_ZDC_OR_OR_MinimumBiasHF1_OR_BptxAND
p1662
aVL1_ZDC_OR_OR_MinimumBiasHF2_OR_BptxAND
p1663
aVL1_ZeroBias
p1664
aVL1_ZeroBias_copy
p1665
atp1666
Rp1667
(dp1668
g21
I00
sg48
I01
sg23
I00
sg223
I1
sbsg606
g0
(g79
g2
Ntp1669
Rp1670
(dp1671
g21
I00
sg48
I01
sg23
I00
sg19
(lp1672
VstageL1Trigger
p1673
asg22
Nsg1673
g0
(cFWCore.ParameterSet.Types
uint32
p1674
g2
Ntp1675
Rp1676
(dp1677
g21
I00
sg48
I01
sg23
I00
sg49
I2
sbsbsg24
V/afs/cern.ch/work/c/chenyi/CMSSW/CMSSW_12_4_9/python/HeavyIonsAnalysis/EventAnalysis/hltanalysis_cfi.py
p1678
sg26
I5
sg27
g595
sbsVparticleFlowAnalyser
p1679
g0
(g520
g2
Ntp1680
Rp1681
(dp1682
g17
VParticleFlowAnalyser
p1683
sg19
(lp1684
VpfCandidateSrc
p1685
ag549
aVabsEtaMax
p1686
asg21
I00
sg22
Nsg1685
g0
(g59
g2
Ntp1687
Rp1688
(dp1689
g21
I00
sg48
I01
sg23
I00
sg63
g373
sg65
g66
sg67
g66
sbsg23
I00
sg549
g0
(g44
g2
Ntp1690
Rp1691
(dp1692
g21
I00
sg48
I01
sg23
I00
sg49
F5.0
sbsg1686
g0
(g44
g2
Ntp1693
Rp1694
(dp1695
g21
I00
sg48
I01
sg23
I00
sg49
F5.0
sbsg24
V/afs/cern.ch/work/c/chenyi/CMSSW/CMSSW_12_4_9/python/HeavyIonsAnalysis/EventAnalysis/particleFlowAnalyser_cfi.py
p1696
sg26
I3
sg27
g1679
sbsVhiEvtAnalyzer
p1697
g0
(g520
g2
Ntp1698
Rp1699
(dp1700
g17
VHiEvtAnalyzer
p1701
sg19
(lp1702
VCentralitySrc
p1703
aVCentralityBinSrc
p1704
aVEvtPlane
p1705
aVEvtPlaneFlat
p1706
aVHiMC
p1707
aVVertex
p1708
aVHFfilters
p1709
aVdoCentrality
p1710
aVdoEvtPlane
p1711
aVdoEvtPlaneFlat
p1712
ag547
aVdoMC
p1713
aVdoHiMC
p1714
aVuseHepMC
p1715
aVevtPlaneLevel
p1716
asg21
I00
sg22
Nsg1703
g0
(g59
g2
Ntp1717
Rp1718
(dp1719
g21
I00
sg48
I01
sg23
I00
sg63
VhiCentrality
p1720
sg65
g66
sg67
g66
sbsg23
I00
sg1704
g0
(g59
g2
Ntp1721
Rp1722
(dp1723
g21
I00
sg48
I01
sg23
I00
sg63
g357
sg65
g358
sg67
g66
sbsg1705
g0
(g59
g2
Ntp1724
Rp1725
(dp1726
g21
I00
sg48
I01
sg23
I00
sg63
VhiEvtPlane
p1727
sg65
g66
sg67
g66
sbsg1706
g0
(g59
g2
Ntp1728
Rp1729
(dp1730
g21
I00
sg48
I01
sg23
I00
sg63
VhiEvtPlaneFlat
p1731
sg65
g66
sg67
g66
sbsg1707
g0
(g59
g2
Ntp1732
Rp1733
(dp1734
g21
I00
sg48
I01
sg23
I00
sg63
g587
sg65
g66
sg67
g66
sbsg1708
g0
(g59
g2
Ntp1735
Rp1736
(dp1737
g21
I00
sg48
I01
sg23
I00
sg63
VofflineSlimmedPrimaryVerticesRecovery
p1738
sg65
g66
sg67
g66
sbsg1709
g0
(g59
g2
Ntp1739
Rp1740
(dp1741
g21
I00
sg48
I01
sg23
I00
sg63
VhiHFfilters
p1742
sg65
g1742
sg67
g66
sbsg1710
g0
(g50
g2
Ntp1743
Rp1744
(dp1745
g21
I00
sg48
I01
sg23
I00
sg49
I01
sbsg1711
g0
(g50
g2
Ntp1746
Rp1747
(dp1748
g21
I00
sg48
I01
sg23
I00
sg49
I01
sbsg1712
g0
(g50
g2
Ntp1749
Rp1750
(dp1751
g21
I00
sg48
I01
sg23
I00
sg49
I01
sbsg547
g0
(g50
g2
Ntp1752
Rp1753
(dp1754
g21
I00
sg48
I01
sg23
I00
sg49
I01
sbsg1713
g0
(g50
g2
Ntp1755
Rp1756
(dp1757
g21
I00
sg48
I01
sg23
I00
sg49
I01
sbsg1714
g0
(g50
g2
Ntp1758
Rp1759
(dp1760
g21
I00
sg48
I01
sg23
I00
sg49
I01
sbsg1715
g0
(g50
g2
Ntp1761
Rp1762
(dp1763
g21
I00
sg48
I01
sg23
I00
sg49
I00
sbsg1716
g0
(cFWCore.ParameterSet.Types
int32
p1764
g2
Ntp1765
Rp1766
(dp1767
g21
I00
sg48
I01
sg23
I00
sg49
I0
sbsg24
V/afs/cern.ch/work/c/chenyi/CMSSW/CMSSW_12_4_9/python/HeavyIonsAnalysis/EventAnalysis/hievtanalyzer_mc_cfi.py
p1768
sg26
I3
sg27
g1697
sbsVskimanalysis
p1769
g0
(g520
g2
Ntp1770
Rp1771
(dp1772
g17
VFilterAnalyzer
p1773
sg19
(lp1774
g602
aVsuperFilters
p1775
asg21
I00
sg22
Nsg602
g0
(g59
g2
Ntp1776
Rp1777
(dp1778
g21
I00
sg48
I01
sg23
I00
sg63
VTriggerResults
p1779
sg65
g66
sg67
g7
sbsg23
I00
sg1775
g0
(g192
g193
(lp1780
g66
atp1781
Rp1782
(dp1783
g21
I00
sg48
I01
sg23
I00
sg223
I1
sbsg24
V/afs/cern.ch/work/c/chenyi/CMSSW/CMSSW_12_4_9/python/HeavyIonsAnalysis/EventAnalysis/skimanalysis_cfi.py
p1784
sg26
I3
sg27
g1769
sbsVhltobject
p1785
g0
(g520
g2
Ntp1786
Rp1787
(dp1788
g17
VTriggerObjectAnalyzer
p1789
sg19
(lp1790
VprocessName
p1791
aVtreeName
p1792
aVtriggerResults
p1793
aVtriggerObjects
p1794
aVtriggerNames
p1795
asg21
I00
sg22
Nsg1791
g0
(g54
g2
Ntp1796
Rp1797
(dp1798
g21
I00
sg48
I01
sg23
I00
sg49
g610
sbsg23
I01
sg1792
g0
(g54
g2
Ntp1799
Rp1800
(dp1801
g21
I00
sg48
I01
sg23
I00
sg49
VJetTriggers
p1802
sbsg1793
g0
(g59
g2
Ntp1803
Rp1804
(dp1805
g21
I00
sg48
I01
sg23
I00
sg63
g1779
sg65
g66
sg67
g610
sbsg1794
g0
(g59
g2
Ntp1806
Rp1807
(dp1808
g21
I00
sg48
I01
sg23
I00
sg63
VslimmedPatTrigger
p1809
sg65
g66
sg67
VPAT
p1810
sbsg24
V/afs/cern.ch/work/c/chenyi/CMSSW/CMSSW_12_4_9/python/HeavyIonsAnalysis/EventAnalysis/hltobject_cfi.py
p1811
sg26
I3
sg27
g1785
sg1795
g0
(g192
g193
(lp1812
VHLT_HIL1DoubleMuOpen_v
p1813
aVHLT_HIL1DoubleMuOpen_OS_Centrality_40_100_v
p1814
aVHLT_HIL1DoubleMuOpen_Centrality_50_100_v
p1815
aVHLT_HIL1DoubleMu10_v
p1816
aVHLT_HIL2_L1DoubleMu10_v
p1817
aVHLT_HIL3_L1DoubleMu10_v
p1818
aVHLT_HIL2DoubleMuOpen_v
p1819
aVHLT_HIL3DoubleMuOpen_v
p1820
aVHLT_HIL3DoubleMuOpen_M60120_v
p1821
aVHLT_HIL3DoubleMuOpen_JpsiPsi_v
p1822
aVHLT_HIL3DoubleMuOpen_Upsi_v
p1823
aVHLT_HIL3Mu0_L2Mu0_v
p1824
aVHLT_HIL3Mu0NHitQ10_L2Mu0_MAXdR3p5_M1to5_v
p1825
aVHLT_HIL3Mu2p5NHitQ10_L2Mu2_M7toinf_v
p1826
aVHLT_HIL3Mu3_L1TripleMuOpen_v
p1827
aVHLT_HIL1MuOpen_Centrality_70_100_v
p1828
aVHLT_HIL1MuOpen_Centrality_80_100_v
p1829
aVHLT_HIL2Mu3_NHitQ15_v
p1830
aVHLT_HIL2Mu5_NHitQ15_v
p1831
aVHLT_HIL2Mu7_NHitQ15_v
p1832
aVHLT_HIL3Mu12_v
p1833
aVHLT_HIL3Mu15_v
p1834
aVHLT_HIL3Mu20_v
p1835
aVHLT_HIL3Mu3_NHitQ10_v
p1836
aVHLT_HIL3Mu5_NHitQ10_v
p1837
aVHLT_HIL3Mu7_NHitQ10_v
p1838
aVHLT_HIL3Mu3Eta2p5_PuAK4CaloJet40Eta2p1_v
p1839
aVHLT_HIL3Mu3Eta2p5_PuAK4CaloJet60Eta2p1_v
p1840
aVHLT_HIL3Mu3Eta2p5_PuAK4CaloJet80Eta2p1_v
p1841
aVHLT_HIL3Mu3Eta2p5_PuAK4CaloJet100Eta2p1_v
p1842
aVHLT_HIL3Mu5Eta2p5_PuAK4CaloJet40Eta2p1_v
p1843
aVHLT_HIL3Mu5Eta2p5_PuAK4CaloJet60Eta2p1_v
p1844
aVHLT_HIL3Mu5Eta2p5_PuAK4CaloJet80Eta2p1_v
p1845
aVHLT_HIL3Mu5Eta2p5_PuAK4CaloJet100Eta2p1_v
p1846
aVHLT_HIL3Mu3Eta2p5_PuAK4CaloJet40Eta2p1_FilterDr_v
p1847
aVHLT_HIL3Mu3Eta2p5_PuAK4CaloJet60Eta2p1_FilterDr_v
p1848
aVHLT_HIL3Mu3Eta2p5_PuAK4CaloJet80Eta2p1_FilterDr_v
p1849
aVHLT_HIL3Mu3Eta2p5_PuAK4CaloJet100Eta2p1_FilterDr_v
p1850
aVHLT_HIL3Mu5Eta2p5_PuAK4CaloJet40Eta2p1_FilterDr_v
p1851
aVHLT_HIL3Mu5Eta2p5_PuAK4CaloJet60Eta2p1_FilterDr_v
p1852
aVHLT_HIL3Mu5Eta2p5_PuAK4CaloJet80Eta2p1_FilterDr_v
p1853
aVHLT_HIL3Mu5Eta2p5_PuAK4CaloJet100Eta2p1_FilterDr_v
p1854
aVHLT_HIPuAK4CaloJet40Eta5p1_v
p1855
aVHLT_HIPuAK4CaloJet60Eta5p1_v
p1856
aVHLT_HIPuAK4CaloJet80Eta5p1_v
p1857
aVHLT_HIPuAK4CaloJet100Eta5p1_v
p1858
aVHLT_HIPuAK4CaloJet120Eta5p1_v
p1859
aVHLT_HIPuAK4CaloJet40Fwd_v
p1860
aVHLT_HIPuAK4CaloJet60Fwd_v
p1861
aVHLT_HIPuAK4CaloJet80Fwd_v
p1862
aVHLT_HIPuAK4CaloJet100Fwd_v
p1863
aVHLT_HIPuAK4CaloJet120Fwd_v
p1864
aVHLT_HIPuAK4CaloJet80_35_Eta1p1_v
p1865
aVHLT_HIPuAK4CaloJet100_35_Eta1p1_v
p1866
aVHLT_HIPuAK4CaloJet80_35_Eta0p7_v
p1867
aVHLT_HIPuAK4CaloJet100_35_Eta0p7_v
p1868
aVHLT_HIPuAK4CaloJet80_45_45_Eta2p1_v
p1869
aVHLT_HIPuAK4CaloJet60Eta2p4_DeepCSV0p4_v
p1870
aVHLT_HIPuAK4CaloJet80Eta2p4_DeepCSV0p4_v
p1871
aVHLT_HIPuAK4CaloJet100Eta2p4_DeepCSV0p4_v
p1872
aVHLT_HIPuAK4CaloJet60Eta2p4_CSVv2WP0p75_v
p1873
aVHLT_HIPuAK4CaloJet80Eta2p4_CSVv2WP0p75_v
p1874
aVHLT_HIPuAK4CaloJet100Eta2p4_CSVv2WP0p75_v
p1875
aVHLT_HICsAK4PFJet60Eta1p5_v
p1876
aVHLT_HICsAK4PFJet80Eta1p5_v
p1877
aVHLT_HICsAK4PFJet100Eta1p5_v
p1878
aVHLT_HICsAK4PFJet120Eta1p5_v
p1879
aVHLT_HIEle10Gsf_v
p1880
aVHLT_HIEle15Gsf_v
p1881
aVHLT_HIEle20Gsf_v
p1882
aVHLT_HIEle30Gsf_v
p1883
aVHLT_HIEle40Gsf_v
p1884
aVHLT_HIEle50Gsf_v
p1885
aVHLT_HIDoubleEle15Gsf_v
p1886
aVHLT_HIDoubleEle15GsfMass50_v
p1887
aVHLT_HIEle15Ele10Gsf_v
p1888
aVHLT_HIEle15Ele10GsfMass50_v
p1889
aVHLT_HIDoubleEle10Gsf_v
p1890
aVHLT_HIDoubleEle10GsfMass50_v
p1891
aVHLT_HIEle10Gsf_PuAK4CaloJet40Eta2p1_v
p1892
aVHLT_HIEle10Gsf_PuAK4CaloJet60Eta2p1_v
p1893
aVHLT_HIEle10Gsf_PuAK4CaloJet80Eta2p1_v
p1894
aVHLT_HIEle10Gsf_PuAK4CaloJet100Eta2p1_v
p1895
aVHLT_HIEle15Gsf_PuAK4CaloJet40Eta2p1_v
p1896
aVHLT_HIEle15Gsf_PuAK4CaloJet60Eta2p1_v
p1897
aVHLT_HIEle15Gsf_PuAK4CaloJet80Eta2p1_v
p1898
aVHLT_HIEle15Gsf_PuAK4CaloJet100Eta2p1_v
p1899
aVHLT_HIEle20Gsf_PuAK4CaloJet40Eta2p1_v
p1900
aVHLT_HIEle20Gsf_PuAK4CaloJet60Eta2p1_v
p1901
aVHLT_HIEle20Gsf_PuAK4CaloJet80Eta2p1_v
p1902
aVHLT_HIEle20Gsf_PuAK4CaloJet100Eta2p1_v
p1903
aVHLT_HIL1Mu5Eta2p5_Ele20Gsf_v
p1904
aVHLT_HIL1Mu7Eta2p5_Ele20Gsf_v
p1905
aVHLT_HIGEDPhoton10_v
p1906
aVHLT_HIGEDPhoton20_v
p1907
aVHLT_HIGEDPhoton30_v
p1908
aVHLT_HIGEDPhoton40_v
p1909
aVHLT_HIGEDPhoton50_v
p1910
aVHLT_HIGEDPhoton60_v
p1911
aVHLT_HIGEDPhoton10_EB_v
p1912
aVHLT_HIGEDPhoton20_EB_v
p1913
aVHLT_HIGEDPhoton30_EB_v
p1914
aVHLT_HIGEDPhoton40_EB_v
p1915
aVHLT_HIGEDPhoton50_EB_v
p1916
aVHLT_HIGEDPhoton60_EB_v
p1917
aVHLT_HIIslandPhoton10_Eta2p4_v
p1918
aVHLT_HIIslandPhoton20_Eta2p4_v
p1919
aVHLT_HIIslandPhoton30_Eta2p4_v
p1920
aVHLT_HIIslandPhoton40_Eta2p4_v
p1921
aVHLT_HIIslandPhoton50_Eta2p4_v
p1922
aVHLT_HIIslandPhoton60_Eta2p4_v
p1923
aVHLT_HIIslandPhoton10_Eta1p5_v
p1924
aVHLT_HIIslandPhoton20_Eta1p5_v
p1925
aVHLT_HIIslandPhoton30_Eta1p5_v
p1926
aVHLT_HIIslandPhoton40_Eta1p5_v
p1927
aVHLT_HIIslandPhoton50_Eta1p5_v
p1928
aVHLT_HIIslandPhoton60_Eta1p5_v
p1929
aVHLT_HIPuAK4CaloJet40Eta5p1_Centrality_30_100_v
p1930
aVHLT_HIPuAK4CaloJet60Eta5p1_Centrality_30_100_v
p1931
aVHLT_HIPuAK4CaloJet80Eta5p1_Centrality_30_100_v
p1932
aVHLT_HIPuAK4CaloJet100Eta5p1_Centrality_30_100_v
p1933
aVHLT_HIPuAK4CaloJet40Eta5p1_Centrality_50_100_v
p1934
aVHLT_HIPuAK4CaloJet60Eta5p1_Centrality_50_100_v
p1935
aVHLT_HIPuAK4CaloJet80Eta5p1_Centrality_50_100_v
p1936
aVHLT_HIPuAK4CaloJet100Eta5p1_Centrality_50_100_v
p1937
aVHLT_HICsAK4PFJet60Eta1p5_Centrality_30_100_v
p1938
aVHLT_HICsAK4PFJet80Eta1p5_Centrality_30_100_v
p1939
aVHLT_HICsAK4PFJet100Eta1p5_Centrality_30_100_v
p1940
aVHLT_HICsAK4PFJet60Eta1p5_Centrality_50_100_v
p1941
aVHLT_HICsAK4PFJet80Eta1p5_Centrality_50_100_v
p1942
aVHLT_HICsAK4PFJet100Eta1p5_Centrality_50_100_v
p1943
aVHLT_HIGEDPhoton10_Cent30_100_v
p1944
aVHLT_HIGEDPhoton20_Cent30_100_v
p1945
aVHLT_HIGEDPhoton30_Cent30_100_v
p1946
aVHLT_HIGEDPhoton40_Cent30_100_v
p1947
aVHLT_HIIslandPhoton10_Eta2p4_Cent30_100_v
p1948
aVHLT_HIIslandPhoton20_Eta2p4_Cent30_100_v
p1949
aVHLT_HIIslandPhoton30_Eta2p4_Cent30_100_v
p1950
aVHLT_HIIslandPhoton40_Eta2p4_Cent30_100_v
p1951
aVHLT_HIGEDPhoton10_Cent50_100_v
p1952
aVHLT_HIGEDPhoton20_Cent50_100_v
p1953
aVHLT_HIGEDPhoton30_Cent50_100_v
p1954
aVHLT_HIGEDPhoton40_Cent50_100_v
p1955
aVHLT_HIIslandPhoton10_Eta2p4_Cent50_100_v
p1956
aVHLT_HIIslandPhoton20_Eta2p4_Cent50_100_v
p1957
aVHLT_HIIslandPhoton30_Eta2p4_Cent50_100_v
p1958
aVHLT_HIIslandPhoton40_Eta2p4_Cent50_100_v
p1959
aVHLT_HIFullTracks_Multiplicity2040_HF1OR_v
p1960
aVHLT_HIFullTracks_Multiplicity4060_v
p1961
aVHLT_HIFullTracks_Multiplicity6080_v
p1962
aVHLT_HIFullTracks_Multiplicity80100_v
p1963
aVHLT_HIDmesonPPTrackingGlobal_Dpt15_v
p1964
aVHLT_HIDmesonPPTrackingGlobal_Dpt20_v
p1965
aVHLT_HIDmesonPPTrackingGlobal_Dpt40_v
p1966
aVHLT_HIDmesonPPTrackingGlobal_Dpt50_v
p1967
aVHLT_HIDmesonPPTrackingGlobal_Dpt60_v
p1968
aVHLT_HIDsPPTrackingGlobal_Dpt20_v
p1969
aVHLT_HIDsPPTrackingGlobal_Dpt40_v
p1970
aVHLT_HIDsPPTrackingGlobal_Dpt50_v
p1971
aVHLT_HIDsPPTrackingGlobal_Dpt60_v
p1972
aVHLT_HILcPPTrackingGlobal_Dpt20_v
p1973
aVHLT_HILcPPTrackingGlobal_Dpt40_v
p1974
aVHLT_HILcPPTrackingGlobal_Dpt50_v
p1975
aVHLT_HILcPPTrackingGlobal_Dpt60_v
p1976
aVHLT_HIFullTracks2018_HighPt18_v
p1977
aVHLT_HIFullTracks2018_HighPt24_v
p1978
aVHLT_HIFullTracks2018_HighPt34_v
p1979
aVHLT_HIFullTracks2018_HighPt45_v
p1980
aVHLT_HIFullTracks2018_HighPt56_v
p1981
aVHLT_HIFullTracks2018_HighPt60_v
p1982
aVHLT_HIUPC_ZeroBias_SinglePixelTrack_v
p1983
aVHLT_HIUPC_SingleEG5_NotMBHF2AND_SinglePixelTrack_v
p1984
aVHLT_HIUPC_SingleMuOpen_NotMBHF2AND_v
p1985
aVHLT_HICastor_MediumJet_NotMBHF2AND_v
p1986
aVHLT_HIL2Mu3_NHitQ15_tagging_v
p1987
aVHLT_HIL2Mu5_NHitQ15_tagging_v
p1988
aVHLT_HIL2Mu7_NHitQ15_tagging_v
p1989
aVHLT_HIL3Mu3_NHitQ10_tagging_v
p1990
aVHLT_HIL3Mu5_NHitQ10_tagging_v
p1991
aVHLT_HIL3Mu7_NHitQ10_tagging_v
p1992
aVHLT_HIDmesonPPTrackingGlobal_Dpt15_NoIter10_v
p1993
aVHLT_HIDmesonPPTrackingGlobal_Dpt20_NoIter10_v
p1994
aVHLT_HIDmesonPPTrackingGlobal_Dpt40_NoIter10_v
p1995
aVHLT_HIDmesonPPTrackingGlobal_Dpt50_NoIter10_v
p1996
aVHLT_HIDmesonPPTrackingGlobal_Dpt60_NoIter10_v
p1997
aVHLT_HIDsPPTrackingGlobal_Dpt20_NoIter10_v
p1998
aVHLT_HIDsPPTrackingGlobal_Dpt40_NoIter10_v
p1999
aVHLT_HIDsPPTrackingGlobal_Dpt50_NoIter10_v
p2000
aVHLT_HIDsPPTrackingGlobal_Dpt60_NoIter10_v
p2001
aVHLT_HILcPPTrackingGlobal_Dpt20_NoIter10_v
p2002
aVHLT_HILcPPTrackingGlobal_Dpt40_NoIter10_v
p2003
aVHLT_HILcPPTrackingGlobal_Dpt50_NoIter10_v
p2004
aVHLT_HILcPPTrackingGlobal_Dpt60_NoIter10_v
p2005
aVHLT_HIFullTracks2018_HighPt18_NoIter10_v
p2006
aVHLT_HIFullTracks2018_HighPt24_NoIter10_v
p2007
aVHLT_HIFullTracks2018_HighPt34_NoIter10_v
p2008
aVHLT_HIFullTracks2018_HighPt45_NoIter10_v
p2009
aVHLT_HIFullTracks2018_HighPt56_NoIter10_v
p2010
aVHLT_HIFullTracks2018_HighPt60_NoIter10_v
p2011
atp2012
Rp2013
(dp2014
g21
I00
sg48
I01
sg23
I00
sg223
I1
sbsbsVl1object
p2015
g0
(g520
g2
Ntp2016
Rp2017
(dp2018
g17
VL1UpgradeFlatTreeProducer
p2019
sg19
(lp2020
VegToken
p2021
aVtauTokens
p2022
aVjetToken
p2023
aVmuonToken
p2024
aVsumToken
p2025
aVdoEg
p2026
aVdoTau
p2027
aVdoJet
p2028
aVdoMuon
p2029
aVdoSum
p2030
aVmaxL1Upgrade
p2031
asg21
I00
sg22
Nsg2021
g0
(g59
g2
Ntp2032
Rp2033
(dp2034
g21
I00
sg48
I00
sg23
I00
sg63
VcaloStage2Digis
p2035
sg65
VEGamma
p2036
sg67
g66
sbsg23
I00
sg2022
g0
(cFWCore.ParameterSet.Types
VInputTag
p2037
g193
(lp2038
g0
(g59
g2
Ntp2039
Rp2040
(dp2041
g21
I00
sg48
I01
sg23
I00
sg63
g2035
sg65
VTau
p2042
sg67
g66
sbatp2043
Rp2044
(dp2045
g21
I00
sg48
I00
sg23
I00
sbsg2023
g0
(g59
g2
Ntp2046
Rp2047
(dp2048
g21
I00
sg48
I00
sg23
I00
sg63
g2035
sg65
VJet
p2049
sg67
g66
sbsg2024
g0
(g59
g2
Ntp2050
Rp2051
(dp2052
g21
I00
sg48
I00
sg23
I00
sg63
VgmtStage2Digis
p2053
sg65
VMuon
p2054
sg67
g66
sbsg2025
g0
(g59
g2
Ntp2055
Rp2056
(dp2057
g21
I00
sg48
I00
sg23
I00
sg63
g2035
sg65
VEtSum
p2058
sg67
g66
sbsg2026
g0
(g50
g2
Ntp2059
Rp2060
(dp2061
g21
I00
sg48
I01
sg23
I00
sg49
I01
sbsg2027
g0
(g50
g2
Ntp2062
Rp2063
(dp2064
g21
I00
sg48
I01
sg23
I00
sg49
I01
sbsg2028
g0
(g50
g2
Ntp2065
Rp2066
(dp2067
g21
I00
sg48
I01
sg23
I00
sg49
I01
sbsg2029
g0
(g50
g2
Ntp2068
Rp2069
(dp2070
g21
I00
sg48
I01
sg23
I00
sg49
I01
sbsg2030
g0
(g50
g2
Ntp2071
Rp2072
(dp2073
g21
I00
sg48
I01
sg23
I00
sg49
I01
sbsg2031
g0
(g1674
g2
Ntp2074
Rp2075
(dp2076
g21
I00
sg48
I01
sg23
I00
sg49
I60
sbsg24
V/afs/cern.ch/work/c/chenyi/CMSSW/CMSSW_12_4_9/python/HeavyIonsAnalysis/EventAnalysis/l1object_cfi.py
p2077
sg26
I3
sg27
g2015
sbsVggHiNtuplizer
p2078
g0
(g520
g2
Ntp2079
Rp2080
(dp2081
g17
g2078
sg19
(lp2082
VdoGenParticles
p2083
aVdoSuperClusters
p2084
aVdoElectrons
p2085
aVdoPhotons
p2086
aVdoMuons
p2087
aVisParticleGun
p2088
aVdoEffectiveAreas
p2089
aVeffAreasConfigFile
p2090
aVsuperClusters
p2091
aVuseValMapIso
p2092
aVdoPhoERegression
p2093
aVdoRecHitsEB
p2094
aVdoRecHitsEE
p2095
aVrecHitsEB
p2096
aVrecHitsEE
p2097
aVpileupSrc
p2098
ag552
ag553
aVdoPackedGenParticle
p2099
aVvertexSrc
p2100
aVrhoSrc
p2101
aVelectronSrc
p2102
aVphotonSrc
p2103
aVmuonSrc
p2104
aVbeamSpotSrc
p2105
aVconversionsSrc
p2106
aVdoPfIso
p2107
aVparticleFlowCollection
p2108
aVisPackedPFCandidate
p2109
asg21
I00
sg22
Nsg2083
g0
(g50
g2
Ntp2110
Rp2111
(dp2112
g21
I00
sg48
I01
sg23
I00
sg49
I01
sbsg23
I01
sg2084
g0
(g50
g2
Ntp2113
Rp2114
(dp2115
g21
I00
sg48
I01
sg23
I00
sg49
I00
sbsg2085
g0
(g50
g2
Ntp2116
Rp2117
(dp2118
g21
I00
sg48
I01
sg23
I00
sg49
I01
sbsg2086
g0
(g50
g2
Ntp2119
Rp2120
(dp2121
g21
I00
sg48
I01
sg23
I00
sg49
I01
sbsg2087
g0
(g50
g2
Ntp2122
Rp2123
(dp2124
g21
I00
sg48
I01
sg23
I00
sg49
I00
sbsg2088
g0
(g50
g2
Ntp2125
Rp2126
(dp2127
g21
I00
sg48
I01
sg23
I00
sg49
I00
sbsg2089
g0
(g50
g2
Ntp2128
Rp2129
(dp2130
g21
I00
sg48
I01
sg23
I00
sg49
I01
sbsg2090
g0
(cFWCore.ParameterSet.Types
FileInPath
p2131
g2
Ntp2132
Rp2133
(dp2134
g21
I00
sg48
I01
sg23
I00
sg49
VHeavyIonsAnalysis/EGMAnalysis/data/EffectiveAreas_94X_v0
p2135
sbsg2091
g0
(g59
g2
Ntp2136
Rp2137
(dp2138
g21
I00
sg48
I01
sg23
I00
sg63
VreducedEgamma
p2139
sg65
VreducedSuperClusters
p2140
sg67
g66
sbsg2092
g0
(g50
g2
Ntp2141
Rp2142
(dp2143
g21
I00
sg48
I01
sg23
I00
sg49
I01
sbsg2093
g0
(g50
g2
Ntp2144
Rp2145
(dp2146
g21
I00
sg48
I01
sg23
I00
sg49
I01
sbsg2094
g0
(g50
g2
Ntp2147
Rp2148
(dp2149
g21
I00
sg48
I01
sg23
I00
sg49
I01
sbsg2095
g0
(g50
g2
Ntp2150
Rp2151
(dp2152
g21
I00
sg48
I01
sg23
I00
sg49
I01
sbsg2096
g0
(g59
g2
Ntp2153
Rp2154
(dp2155
g21
I00
sg48
I00
sg23
I00
sg63
VreducedEgamma
p2156
sg65
VreducedEBRecHits
p2157
sg67
g66
sbsg2097
g0
(g59
g2
Ntp2158
Rp2159
(dp2160
g21
I00
sg48
I00
sg23
I00
sg63
g2156
sg65
VreducedEERecHits
p2161
sg67
g66
sbsg2098
g0
(g59
g2
Ntp2162
Rp2163
(dp2164
g21
I00
sg48
I01
sg23
I00
sg63
VslimmedAddPileupInfo
p2165
sg65
g66
sg67
g66
sbsg552
g0
(g59
g2
Ntp2166
Rp2167
(dp2168
g21
I00
sg48
I01
sg23
I00
sg63
VpackedGenParticles
p2169
sg65
g66
sg67
g66
sbsg553
g0
(g59
g2
Ntp2170
Rp2171
(dp2172
g21
I00
sg48
I01
sg23
I00
sg63
VpackedGenParticlesSignal
p2173
sg65
g66
sg67
g66
sbsg2099
g0
(g50
g2
Ntp2174
Rp2175
(dp2176
g21
I00
sg48
I01
sg23
I00
sg49
I01
sbsg2100
g0
(g59
g2
Ntp2177
Rp2178
(dp2179
g21
I00
sg48
I01
sg23
I00
sg63
g397
sg65
g66
sg67
g66
sbsg2101
g0
(g59
g2
Ntp2180
Rp2181
(dp2182
g21
I00
sg48
I01
sg23
I00
sg63
VfixedGridRhoFastjetAll
p2183
sg65
g66
sg67
g66
sbsg2102
g0
(g59
g2
Ntp2184
Rp2185
(dp2186
g21
I00
sg48
I01
sg23
I01
sg63
g340
sg65
g66
sg67
g66
sbsg2103
g0
(g59
g2
Ntp2187
Rp2188
(dp2189
g21
I00
sg48
I01
sg23
I00
sg63
g297
sg65
g66
sg67
g66
sbsg2104
g0
(g59
g2
Ntp2190
Rp2191
(dp2192
g21
I00
sg48
I01
sg23
I00
sg63
g409
sg65
g66
sg67
g66
sbsg2105
g0
(g59
g2
Ntp2193
Rp2194
(dp2195
g21
I00
sg48
I01
sg23
I00
sg63
g443
sg65
g66
sg67
g66
sbsg2106
g0
(g59
g2
Ntp2196
Rp2197
(dp2198
g21
I00
sg48
I01
sg23
I00
sg63
VreducedEgamma
p2199
sg65
VreducedConversions
p2200
sg67
g66
sbsg2107
g0
(g50
g2
Ntp2201
Rp2202
(dp2203
g21
I00
sg48
I01
sg23
I00
sg49
I01
sbsg2108
g0
(g59
g2
Ntp2204
Rp2205
(dp2206
g21
I00
sg48
I01
sg23
I00
sg63
g373
sg65
g66
sg67
g66
sbsg2109
g0
(g50
g2
Ntp2207
Rp2208
(dp2209
g21
I00
sg48
I01
sg23
I00
sg49
I01
sbsg24
V/afs/cern.ch/work/c/chenyi/CMSSW/CMSSW_12_4_9/python/HeavyIonsAnalysis/EGMAnalysis/ggHiNtuplizer_cfi.py
p2210
sg26
I3
sg27
g2078
sbsVakCs4PFJetAnalyzer
p2211
g0
(g520
g2
Ntp2212
Rp2213
(dp2214
g17
VHiInclusiveJetAnalyzer
p2215
sg19
(lp2216
VjetTag
p2217
aVcaloJetTag
p2218
aVjetPtMin
p2219
aVmatchTag
p2220
aVgenjetTag
p2221
aVeventInfoTag
p2222
aVisMC
p2223
aVfillGenJets
p2224
aVrParam
p2225
aVpfCandidateLabel
p2226
aVtrackTag
p2227
aVtrackQuality
p2228
aVvtxTag
p2229
aVtowersSrc
p2230
aVuseRawPt
p2231
ag1715
aVuseQuality
p2232
aVdoGenTaus
p2233
aVdoGenSym
p2234
aVdoSubJets
p2235
aVdoJetConstituents
p2236
aVdoWTARecluster
p2237
aVdoHiJetID
p2238
aVdoStandardJetID
p2239
aVdoSubEvent
p2240
aVdoLegacyBtagging
p2241
aVdoCandidateBtagging
p2242
ag579
aVjetName
p2243
aVgenPtMin
p2244
aVhltTrgResults
p2245
asg21
I00
sg22
Nsg2217
g0
(g59
g2
Ntp2246
Rp2247
(dp2248
g21
I00
sg48
I01
sg23
I00
sg63
VslimmedJets
p2249
sg65
g66
sg67
g66
sbsg23
I00
sg2218
g0
(g59
g2
Ntp2250
Rp2251
(dp2252
g21
I00
sg48
I01
sg23
I00
sg63
VslimmedCaloJets
p2253
sg65
g66
sg67
g66
sbsg2219
g0
(g44
g2
Ntp2254
Rp2255
(dp2256
g21
I00
sg48
I01
sg23
I00
sg49
F5.0
sbsg2220
g0
(g59
g2
Ntp2257
Rp2258
(dp2259
g21
I00
sg48
I00
sg23
I00
sg63
VakPu4PFpatJets
p2260
sg65
g66
sg67
g66
sbsg2221
g0
(g59
g2
Ntp2261
Rp2262
(dp2263
g21
I00
sg48
I01
sg23
I01
sg63
VslimmedGenJets
p2264
sg65
g66
sg67
g66
sbsg2222
g0
(g59
g2
Ntp2265
Rp2266
(dp2267
g21
I00
sg48
I01
sg23
I00
sg63
g575
sg65
g66
sg67
g66
sbsg2223
g0
(g50
g2
Ntp2268
Rp2269
(dp2270
g21
I00
sg48
I00
sg23
I01
sg49
I01
sbsg2224
g0
(g50
g2
Ntp2271
Rp2272
(dp2273
g21
I00
sg48
I00
sg23
I01
sg49
I01
sbsg2225
g0
(g44
g2
Ntp2274
Rp2275
(dp2276
g21
I00
sg48
I01
sg23
I00
sg49
F0.4
sbsg2226
g0
(g59
g2
Ntp2277
Rp2278
(dp2279
g21
I00
sg48
I00
sg23
I00
sg63
g373
sg65
g66
sg67
g66
sbsg2227
g0
(g59
g2
Ntp2280
Rp2281
(dp2282
g21
I00
sg48
I01
sg23
I00
sg63
VhiTracks
p2283
sg65
g66
sg67
g66
sbsg2228
g0
(g54
g2
Ntp2284
Rp2285
(dp2286
g21
I00
sg48
I00
sg23
I00
sg49
VhighPurity
p2287
sbsg2229
g0
(g59
g2
Ntp2288
Rp2289
(dp2290
g21
I00
sg48
I01
sg23
I00
sg63
VhiSelectedVertex
p2291
sg65
g66
sg67
g66
sbsg2230
g0
(g59
g2
Ntp2292
Rp2293
(dp2294
g21
I00
sg48
I01
sg23
I00
sg63
VtowerMaker
p2295
sg65
g66
sg67
g66
sbsg2231
g0
(g50
g2
Ntp2296
Rp2297
(dp2298
g21
I00
sg48
I00
sg23
I00
sg49
I00
sbsg1715
g0
(g50
g2
Ntp2299
Rp2300
(dp2301
g21
I00
sg48
I00
sg23
I00
sg49
I00
sbsg2232
g0
(g50
g2
Ntp2302
Rp2303
(dp2304
g21
I00
sg48
I00
sg23
I00
sg49
I01
sbsg2233
g0
(g50
g2
Ntp2305
Rp2306
(dp2307
g21
I00
sg48
I00
sg23
I00
sg49
I00
sbsg2234
g0
(g50
g2
Ntp2308
Rp2309
(dp2310
g21
I00
sg48
I00
sg23
I00
sg49
I00
sbsg2235
g0
(g50
g2
Ntp2311
Rp2312
(dp2313
g21
I00
sg48
I00
sg23
I00
sg49
I00
sbsg2236
g0
(g50
g2
Ntp2314
Rp2315
(dp2316
g21
I00
sg48
I00
sg23
I00
sg49
I00
sbsg2237
g0
(g50
g2
Ntp2317
Rp2318
(dp2319
g21
I00
sg48
I00
sg23
I00
sg49
I00
sbsg2238
g0
(g50
g2
Ntp2320
Rp2321
(dp2322
g21
I00
sg48
I00
sg23
I00
sg49
I00
sbsg2239
g0
(g50
g2
Ntp2323
Rp2324
(dp2325
g21
I00
sg48
I00
sg23
I00
sg49
I00
sbsg2240
g0
(g50
g2
Ntp2326
Rp2327
(dp2328
g21
I00
sg48
I00
sg23
I00
sg49
I00
sbsg2241
g0
(g50
g2
Ntp2329
Rp2330
(dp2331
g21
I00
sg48
I00
sg23
I00
sg49
I00
sbsg2242
g0
(g50
g2
Ntp2332
Rp2333
(dp2334
g21
I00
sg48
I00
sg23
I00
sg49
I01
sbsg579
g0
(g59
g2
Ntp2335
Rp2336
(dp2337
g21
I00
sg48
I00
sg23
I00
sg63
VprunedGenParticles
p2338
sg65
g66
sg67
g66
sbsg2243
g0
(g54
g2
Ntp2339
Rp2340
(dp2341
g21
I00
sg48
I00
sg23
I00
sg49
VakCs4PF
p2342
sbsg2244
g0
(g44
g2
Ntp2343
Rp2344
(dp2345
g21
I00
sg48
I00
sg23
I00
sg49
I5
sbsg2245
g0
(g54
g2
Ntp2346
Rp2347
(dp2348
g21
I00
sg48
I00
sg23
I00
sg49
VTriggerResults::HISIGNAL
p2349
sbsg24
V/afs/cern.ch/work/c/chenyi/CMSSW/CMSSW_12_4_9/python/HeavyIonsAnalysis/JetAnalysis/akCs4PFJetSequence_pponPbPb_mc_cff.py
p2350
sg26
I5
sg27
g2211
sbsVinclusiveJetAnalyzer
p2351
g0
(g520
g2
Ntp2352
Rp2353
(dp2354
g17
g2215
sg19
(lp2355
g2217
ag2218
ag2219
ag2220
ag2221
ag2222
ag2223
ag2224
ag2225
ag2226
ag2227
ag2228
ag2229
ag2230
ag2231
ag1715
ag2232
ag2233
ag2234
ag2235
ag2236
ag2237
ag2238
ag2239
ag2240
ag2241
ag2242
asg21
I00
sg22
Nsg2217
g0
(g59
g2
Ntp2356
Rp2357
(dp2358
g21
I00
sg48
I01
sg23
I00
sg63
Vak4PFJets
p2359
sg65
g66
sg67
g66
sbsg23
I00
sg2218
g0
(g59
g2
Ntp2360
Rp2361
(dp2362
g21
I00
sg48
I01
sg23
I00
sg63
g2253
sg65
g66
sg67
g66
sbsg2219
g0
(g44
g2
Ntp2363
Rp2364
(dp2365
g21
I00
sg48
I01
sg23
I00
sg49
F5.0
sbsg2220
g0
(g59
g2
Ntp2366
Rp2367
(dp2368
g21
I00
sg48
I00
sg23
I00
sg63
g2260
sg65
g66
sg67
g66
sbsg2221
g0
(g59
g2
Ntp2369
Rp2370
(dp2371
g21
I00
sg48
I01
sg23
I00
sg63
Vak4HiGenJets
p2372
sg65
g66
sg67
g66
sbsg2222
g0
(g59
g2
Ntp2373
Rp2374
(dp2375
g21
I00
sg48
I01
sg23
I00
sg63
g575
sg65
g66
sg67
g66
sbsg2223
g0
(g50
g2
Ntp2376
Rp2377
(dp2378
g21
I00
sg48
I00
sg23
I00
sg49
I00
sbsg2224
g0
(g50
g2
Ntp2379
Rp2380
(dp2381
g21
I00
sg48
I00
sg23
I00
sg49
I00
sbsg2225
g0
(g44
g2
Ntp2382
Rp2383
(dp2384
g21
I00
sg48
I01
sg23
I00
sg49
F0.4
sbsg2226
g0
(g59
g2
Ntp2385
Rp2386
(dp2387
g21
I00
sg48
I00
sg23
I00
sg63
g373
sg65
g66
sg67
g66
sbsg2227
g0
(g59
g2
Ntp2388
Rp2389
(dp2390
g21
I00
sg48
I01
sg23
I00
sg63
g2283
sg65
g66
sg67
g66
sbsg2228
g0
(g54
g2
Ntp2391
Rp2392
(dp2393
g21
I00
sg48
I00
sg23
I00
sg49
g2287
sbsg2229
g0
(g59
g2
Ntp2394
Rp2395
(dp2396
g21
I00
sg48
I01
sg23
I00
sg63
g2291
sg65
g66
sg67
g66
sbsg2230
g0
(g59
g2
Ntp2397
Rp2398
(dp2399
g21
I00
sg48
I01
sg23
I00
sg63
g2295
sg65
g66
sg67
g66
sbsg2231
g0
(g50
g2
Ntp2400
Rp2401
(dp2402
g21
I00
sg48
I00
sg23
I00
sg49
I00
sbsg1715
g0
(g50
g2
Ntp2403
Rp2404
(dp2405
g21
I00
sg48
I00
sg23
I00
sg49
I00
sbsg2232
g0
(g50
g2
Ntp2406
Rp2407
(dp2408
g21
I00
sg48
I00
sg23
I00
sg49
I01
sbsg2233
g0
(g50
g2
Ntp2409
Rp2410
(dp2411
g21
I00
sg48
I00
sg23
I00
sg49
I00
sbsg2234
g0
(g50
g2
Ntp2412
Rp2413
(dp2414
g21
I00
sg48
I00
sg23
I00
sg49
I00
sbsg2235
g0
(g50
g2
Ntp2415
Rp2416
(dp2417
g21
I00
sg48
I00
sg23
I00
sg49
I00
sbsg2236
g0
(g50
g2
Ntp2418
Rp2419
(dp2420
g21
I00
sg48
I00
sg23
I00
sg49
I00
sbsg2237
g0
(g50
g2
Ntp2421
Rp2422
(dp2423
g21
I00
sg48
I00
sg23
I00
sg49
I00
sbsg2238
g0
(g50
g2
Ntp2424
Rp2425
(dp2426
g21
I00
sg48
I00
sg23
I00
sg49
I00
sbsg2239
g0
(g50
g2
Ntp2427
Rp2428
(dp2429
g21
I00
sg48
I00
sg23
I00
sg49
I00
sbsg2240
g0
(g50
g2
Ntp2430
Rp2431
(dp2432
g21
I00
sg48
I00
sg23
I00
sg49
I00
sbsg2241
g0
(g50
g2
Ntp2433
Rp2434
(dp2435
g21
I00
sg48
I00
sg23
I00
sg49
I00
sbsg2242
g0
(g50
g2
Ntp2436
Rp2437
(dp2438
g21
I00
sg48
I00
sg23
I00
sg49
I01
sbsg24
V/afs/cern.ch/work/c/chenyi/CMSSW/CMSSW_12_4_9/python/HeavyIonsAnalysis/JetAnalysis/inclusiveJetAnalyzer_cff.py
p2439
sg26
I3
sg27
g2351
sbsVPbPbTracks
p2440
g0
(g520
g2
Ntp2441
Rp2442
(dp2443
g17
VTrackAnalyzer
p2444
sg19
(lp2445
VdoTrack
p2446
aVtrackPtMin
p2447
ag2100
aVpackedCandSrc
p2448
aVlostTracksSrc
p2449
ag2105
aVchi2Map
p2450
aVchi2MapLost
p2451
asg21
I00
sg22
Nsg2446
g0
(g50
g2
Ntp2452
Rp2453
(dp2454
g21
I00
sg48
I00
sg23
I00
sg49
I01
sbsg23
I00
sg2447
g0
(g44
g2
Ntp2455
Rp2456
(dp2457
g21
I00
sg48
I00
sg23
I00
sg49
F0.01
sbsg2100
g0
(g59
g2
Ntp2458
Rp2459
(dp2460
g21
I00
sg48
I01
sg23
I00
sg63
g367
sg65
g66
sg67
g66
sbsg2448
g0
(g59
g2
Ntp2461
Rp2462
(dp2463
g21
I00
sg48
I01
sg23
I00
sg63
g373
sg65
g66
sg67
g66
sbsg2449
g0
(g59
g2
Ntp2464
Rp2465
(dp2466
g21
I00
sg48
I01
sg23
I00
sg63
g374
sg65
g66
sg67
g66
sbsg2105
g0
(g59
g2
Ntp2467
Rp2468
(dp2469
g21
I00
sg48
I00
sg23
I00
sg63
g443
sg65
g66
sg67
g66
sbsg2450
g0
(g59
g2
Ntp2470
Rp2471
(dp2472
g21
I00
sg48
I01
sg23
I00
sg63
g389
sg65
g66
sg67
g66
sbsg2451
g0
(g59
g2
Ntp2473
Rp2474
(dp2475
g21
I00
sg48
I01
sg23
I00
sg63
g393
sg65
g66
sg67
g66
sbsg24
V/afs/cern.ch/work/c/chenyi/CMSSW/CMSSW_12_4_9/python/HeavyIonsAnalysis/TrackAnalysis/TrackAnalyzers_cff.py
p2476
sg26
I6
sg27
g2440
sbsVppTracks
p2477
g0
(g520
g2
Ntp2478
Rp2479
(dp2480
g17
g2444
sg19
(lp2481
g2446
ag2447
ag2100
ag2448
ag2449
ag2105
ag2450
ag2451
asg21
I00
sg22
Nsg2446
g0
(g50
g2
Ntp2482
Rp2483
(dp2484
g21
I00
sg48
I00
sg23
I00
sg49
I01
sbsg23
I00
sg2447
g0
(g44
g2
Ntp2485
Rp2486
(dp2487
g21
I00
sg48
I00
sg23
I00
sg49
F0.01
sbsg2100
g0
(g59
g2
Ntp2488
Rp2489
(dp2490
g21
I00
sg48
I01
sg23
I00
sg63
g367
sg65
g66
sg67
g66
sbsg2448
g0
(g59
g2
Ntp2491
Rp2492
(dp2493
g21
I00
sg48
I01
sg23
I00
sg63
g373
sg65
g66
sg67
g66
sbsg2449
g0
(g59
g2
Ntp2494
Rp2495
(dp2496
g21
I00
sg48
I01
sg23
I00
sg63
g374
sg65
g66
sg67
g66
sbsg2105
g0
(g59
g2
Ntp2497
Rp2498
(dp2499
g21
I00
sg48
I00
sg23
I00
sg63
g443
sg65
g66
sg67
g66
sbsg2450
g0
(g59
g2
Ntp2500
Rp2501
(dp2502
g21
I00
sg48
I01
sg23
I00
sg63
g389
sg65
g66
sg67
g66
sbsg2451
g0
(g59
g2
Ntp2503
Rp2504
(dp2505
g21
I00
sg48
I01
sg23
I00
sg63
g393
sg65
g66
sg67
g66
sbsg24
g2476
sg26
I8
sg27
g2477
sbsVtrackAnalyzer
p2506
g0
(g520
g2
Ntp2507
Rp2508
(dp2509
g17
g2444
sg19
(lp2510
g2446
ag2447
ag2100
ag2448
ag2449
ag2105
ag2450
ag2451
asg21
I00
sg22
Nsg2446
g0
(g50
g2
Ntp2511
Rp2512
(dp2513
g21
I00
sg48
I00
sg23
I00
sg49
I01
sbsg23
I00
sg2447
g0
(g44
g2
Ntp2514
Rp2515
(dp2516
g21
I00
sg48
I00
sg23
I00
sg49
F0.01
sbsg2100
g0
(g59
g2
Ntp2517
Rp2518
(dp2519
g21
I00
sg48
I01
sg23
I00
sg63
g367
sg65
g66
sg67
g66
sbsg2448
g0
(g59
g2
Ntp2520
Rp2521
(dp2522
g21
I00
sg48
I01
sg23
I00
sg63
g373
sg65
g66
sg67
g66
sbsg2449
g0
(g59
g2
Ntp2523
Rp2524
(dp2525
g21
I00
sg48
I01
sg23
I00
sg63
g374
sg65
g66
sg67
g66
sbsg2105
g0
(g59
g2
Ntp2526
Rp2527
(dp2528
g21
I00
sg48
I00
sg23
I00
sg63
g443
sg65
g66
sg67
g66
sbsg2450
g0
(g59
g2
Ntp2529
Rp2530
(dp2531
g21
I00
sg48
I01
sg23
I00
sg63
g389
sg65
g66
sg67
g66
sbsg2451
g0
(g59
g2
Ntp2532
Rp2533
(dp2534
g21
I00
sg48
I01
sg23
I00
sg63
g393
sg65
g66
sg67
g66
sbsg24
V/afs/cern.ch/work/c/chenyi/CMSSW/CMSSW_12_4_9/python/HeavyIonsAnalysis/TrackAnalysis/TrackAnalyzer_cfi.py
p2535
sg26
I3
sg27
g2506
sbsVmuonAnalyzer
p2536
g0
(g520
g2
Ntp2537
Rp2538
(dp2539
g17
VMuonAnalyzer
p2540
sg19
(lp2541
g2104
ag2100
aVdoReco
p2542
aVdoGen
p2543
aVgenparticle
p2544
aVsimtrack
p2545
asg21
I00
sg22
Nsg2104
g0
(g59
g2
Ntp2546
Rp2547
(dp2548
g21
I00
sg48
I01
sg23
I00
sg63
g409
sg65
g66
sg67
g66
sbsg23
I01
sg2100
g0
(g59
g2
Ntp2549
Rp2550
(dp2551
g21
I00
sg48
I01
sg23
I00
sg63
g397
sg65
g66
sg67
g66
sbsg2542
g0
(g50
g2
Ntp2552
Rp2553
(dp2554
g21
I00
sg48
I00
sg23
I00
sg49
I01
sbsg2543
g0
(g50
g2
Ntp2555
Rp2556
(dp2557
g21
I00
sg48
I01
sg23
I00
sg49
I01
sbsg2544
g0
(g59
g2
Ntp2558
Rp2559
(dp2560
g21
I00
sg48
I01
sg23
I00
sg63
g2169
sg65
g66
sg67
g66
sbsg2545
g0
(g59
g2
Ntp2561
Rp2562
(dp2563
g21
I00
sg48
I01
sg23
I00
sg63
Vmergedtruth
p2564
sg65
VMergedTrackTruth
p2565
sg67
g66
sbsg24
V/afs/cern.ch/work/c/chenyi/CMSSW/CMSSW_12_4_9/python/HeavyIonsAnalysis/MuonAnalysis/muonAnalyzer_cfi.py
p2566
sg26
I3
sg27
g2536
sbssV_Process__outputmodules
p2567
(dp2568
sV_Process__paths
p2569
g0
(cFWCore.ParameterSet.DictTypes
SortedKeysDict
p2570
c__builtin__
dict
p2571
(dp2572
Vforest
p2573
g0
(cFWCore.ParameterSet.SequenceTypes
Path
p2574
g2
Ntp2575
Rp2576
(dp2577
g21
I00
sV_seq
p2578
g0
(cFWCore.ParameterSet.SequenceTypes
_SequenceCollection
p2579
g2
Ntp2580
Rp2581
(dp2582
V_collection
p2583
(lp2584
g543
asbsg23
I00
sV_tasks
p2585
g0
(cFWCore.ParameterSet.OrderedSet
OrderedSet
p2586
g2
Ntp2587
Rp2588
(dp2589
Vend
p2590
(lp2591
Nag2591
ag2591
asVmap
p2592
(dp2593
sbsg27
g2573
sbstp2594
Rp2595
(dp2596
Vlist
p2597
(lp2598
g2573
asbsV_Process__endpaths
p2599
g0
(g2570
g2571
(dp2600
tp2601
Rp2602
(dp2603
g2597
(lp2604
sbsV_Process__finalpaths
p2605
g0
(g2570
g2571
(dp2606
tp2607
Rp2608
(dp2609
g2597
(lp2610
sbsV_Process__sequences
p2611
(dp2612
VtrackSequencePP
p2613
g0
(cFWCore.ParameterSet.SequenceTypes
Sequence
p2614
g2
Ntp2615
Rp2616
(dp2617
g21
I00
sg2578
g0
(g2579
g2
Ntp2618
Rp2619
(dp2620
g2583
(lp2621
g369
ag2479
asbsg23
I00
sg2585
g0
(g2586
g2
Ntp2622
Rp2623
(dp2624
g2590
(lp2625
Nag2625
ag2625
asg2592
(dp2626
sbsg27
g2613
sbsVtrackSequencePbPb
p2627
g0
(g2614
g2
Ntp2628
Rp2629
(dp2630
g21
I00
sg2578
g0
(g2579
g2
Ntp2631
Rp2632
(dp2633
g2583
(lp2634
g369
ag2442
asbsg23
I00
sg2585
g0
(g2586
g2
Ntp2635
Rp2636
(dp2637
g2590
(lp2638
Nag2638
ag2638
asg2592
(dp2639
sbsg27
g2627
sbsVmuonSequence
p2640
g0
(g2614
g2
Ntp2641
Rp2642
(dp2643
g21
I00
sg2578
g0
(g2579
g2
Ntp2644
Rp2645
(dp2646
g2583
(lp2647
g369
ag411
ag2538
asbsg23
I00
sg2585
g0
(g2586
g2
Ntp2648
Rp2649
(dp2650
g2590
(lp2651
Nag2651
ag2651
asg2592
(dp2652
sbsg27
g2640
sbssV_Process__tasks
p2653
(dp2654
sV_Process__conditionaltasks
p2655
(dp2656
sV_Process__services
p2657
(dp2658
VMessageLogger
p2659
g0
(cFWCore.ParameterSet.Modules
Service
p2660
g2
Ntp2661
Rp2662
(dp2663
g17
g2659
sg19
(lp2664
VsuppressWarning
p2665
aVsuppressFwkInfo
p2666
aVsuppressInfo
p2667
aVsuppressDebug
p2668
aVdebugModules
p2669
aVcout
p2670
aVdefault
p2671
aVcerr
p2672
aVfiles
p2673
asg21
I00
sg22
g0
(g224
g2
Ntp2674
Rp2675
(dp2676
g21
I00
sg48
I00
sg23
I00
sg228
g0
(cFWCore.ParameterSet.Types
_PSetTemplate
p2677
g2
Ntp2678
Rp2679
(dp2680
V_pset
p2681
g0
(g79
g2
Ntp2682
Rp2683
(dp2684
g21
I00
sg48
I01
sg23
I00
sg19
(lp2685
VreportEvery
p2686
aVlimit
p2687
aVtimespan
p2688
asg22
Nsg2686
g0
(g1764
g2
Ntp2689
Rp2690
(dp2691
g21
I00
sg48
I00
sg23
I00
sg49
I1
sbsg2687
g0
(g224
g2
Ntp2692
Rp2693
(dp2694
g21
I00
sg48
I00
sg23
I00
sg228
g1764
sg229
Nsbsg2688
g0
(g224
g2
Ntp2695
Rp2696
(dp2697
g21
I00
sg48
I00
sg23
I00
sg228
g1764
sg229
NsbsbsV_PSetTemplate__value
p2698
Nsbsg229
Nsbsg2665
g0
(g192
g193
(lp2699
tp2700
Rp2701
(dp2702
g21
I00
sg48
I00
sg23
I00
sg223
I1
sbsg23
I00
sg2666
g0
(g192
g193
(lp2703
tp2704
Rp2705
(dp2706
g21
I00
sg48
I00
sg23
I00
sg223
I1
sbsg2667
g0
(g192
g193
(lp2707
tp2708
Rp2709
(dp2710
g21
I00
sg48
I00
sg23
I00
sg223
I1
sbsg2668
g0
(g192
g193
(lp2711
tp2712
Rp2713
(dp2714
g21
I00
sg48
I00
sg23
I00
sg223
I1
sbsg2669
g0
(g192
g193
(lp2715
tp2716
Rp2717
(dp2718
g21
I00
sg48
I00
sg23
I00
sg223
I1
sbsg2670
g0
(g79
g2
Ntp2719
Rp2720
(dp2721
g21
I00
sg48
I00
sg23
I00
sg19
(lp2722
VnoLineBreaks
p2723
aVnoTimeStamps
p2724
aVlineLength
p2725
aVthreshold
p2726
aVstatisticsThreshold
p2727
aVenableStatistics
p2728
aVresetStatistics
p2729
aVenable
p2730
asg22
g2675
sg2723
g0
(g224
g2
Ntp2731
Rp2732
(dp2733
g21
I00
sg48
I00
sg23
I00
sg228
g50
sg229
Nsbsg2724
g0
(g224
g2
Ntp2734
Rp2735
(dp2736
g21
I00
sg48
I00
sg23
I00
sg228
g50
sg229
Nsbsg2725
g0
(g224
g2
Ntp2737
Rp2738
(dp2739
g21
I00
sg48
I00
sg23
I00
sg228
g1764
sg229
Nsbsg2726
g0
(g224
g2
Ntp2740
Rp2741
(dp2742
g21
I00
sg48
I00
sg23
I00
sg228
g54
sg229
Nsbsg2727
g0
(g224
g2
Ntp2743
Rp2744
(dp2745
g21
I00
sg48
I00
sg23
I00
sg228
g54
sg229
Nsbsg2728
g0
(g50
g2
Ntp2746
Rp2747
(dp2748
g21
I00
sg48
I00
sg23
I00
sg49
I00
sbsg2729
g0
(g50
g2
Ntp2749
Rp2750
(dp2751
g21
I00
sg48
I00
sg23
I00
sg49
I00
sbsg2730
g0
(g50
g2
Ntp2752
Rp2753
(dp2754
g21
I00
sg48
I00
sg23
I00
sg49
I00
sbsbsg2671
g0
(g79
g2
Ntp2755
Rp2756
(dp2757
g21
I00
sg48
I00
sg23
I00
sg19
(lp2758
g2686
ag2687
ag2688
ag2723
ag2724
ag2725
ag2726
ag2727
asg22
g2675
sg2686
g0
(g1764
g2
Ntp2759
Rp2760
(dp2761
g21
I00
sg48
I00
sg23
I00
sg49
I1
sbsg2687
g0
(g224
g2
Ntp2762
Rp2763
(dp2764
g21
I00
sg48
I00
sg23
I00
sg228
g1764
sg229
Nsbsg2688
g0
(g224
g2
Ntp2765
Rp2766
(dp2767
g21
I00
sg48
I00
sg23
I00
sg228
g1764
sg229
Nsbsg2723
g0
(g50
g2
Ntp2768
Rp2769
(dp2770
g21
I00
sg48
I00
sg23
I00
sg49
I00
sbsg2724
g0
(g50
g2
Ntp2771
Rp2772
(dp2773
g21
I00
sg48
I00
sg23
I00
sg49
I00
sbsg2725
g0
(g1764
g2
Ntp2774
Rp2775
(dp2776
g21
I00
sg48
I00
sg23
I00
sg49
I80
sbsg2726
g0
(g54
g2
Ntp2777
Rp2778
(dp2779
g21
I00
sg48
I00
sg23
I00
sg49
VINFO
p2780
sbsg2727
g0
(g54
g2
Ntp2781
Rp2782
(dp2783
g21
I00
sg48
I00
sg23
I00
sg49
g2780
sbsbsg2672
g0
(g79
g2
Ntp2784
Rp2785
(dp2786
g21
I00
sg48
I00
sg23
I00
sg19
(lp2787
g2723
ag2724
ag2725
ag2726
ag2727
ag2730
ag2728
ag2729
ag2780
aVFwkReport
p2788
ag2671
aVRoot_NoDictionary
p2789
aVFwkSummary
p2790
asg22
g2675
sg2723
g0
(g224
g2
Ntp2791
Rp2792
(dp2793
g21
I00
sg48
I00
sg23
I00
sg228
g50
sg229
Nsbsg2724
g0
(g50
g2
Ntp2794
Rp2795
(dp2796
g21
I00
sg48
I00
sg23
I00
sg49
I00
sbsg2725
g0
(g224
g2
Ntp2797
Rp2798
(dp2799
g21
I00
sg48
I00
sg23
I00
sg228
g1764
sg229
Nsbsg2726
g0
(g54
g2
Ntp2800
Rp2801
(dp2802
g21
I00
sg48
I00
sg23
I00
sg49
g2780
sbsg2727
g0
(g54
g2
Ntp2803
Rp2804
(dp2805
g21
I00
sg48
I00
sg23
I00
sg49
VWARNING
p2806
sbsg2730
g0
(g50
g2
Ntp2807
Rp2808
(dp2809
g21
I00
sg48
I00
sg23
I00
sg49
I01
sbsg2728
g0
(g50
g2
Ntp2810
Rp2811
(dp2812
g21
I00
sg48
I00
sg23
I00
sg49
I01
sbsg2729
g0
(g50
g2
Ntp2813
Rp2814
(dp2815
g21
I00
sg48
I00
sg23
I00
sg49
I00
sbsg2780
g0
(g79
g2
Ntp2816
Rp2817
(dp2818
g21
I00
sg48
I00
sg23
I00
sg19
(lp2819
g2687
asg22
Nsg2687
g0
(g1764
g2
Ntp2820
Rp2821
(dp2822
g21
I00
sg48
I00
sg23
I00
sg49
I0
sbsbsg2788
g0
(g79
g2
Ntp2823
Rp2824
(dp2825
g21
I00
sg48
I00
sg23
I00
sg19
(lp2826
g2686
ag2687
asg22
Nsg2686
g0
(g1764
g2
Ntp2827
Rp2828
(dp2829
g21
I00
sg48
I00
sg23
I00
sg49
I1
sbsg2687
g0
(g1764
g2
Ntp2830
Rp2831
(dp2832
g21
I00
sg48
I00
sg23
I00
sg49
I10000000
sbsbsg2671
g0
(g79
g2
Ntp2833
Rp2834
(dp2835
g21
I00
sg48
I00
sg23
I00
sg19
(lp2836
g2687
asg22
Nsg2687
g0
(g1764
g2
Ntp2837
Rp2838
(dp2839
g21
I00
sg48
I00
sg23
I00
sg49
I10000000
sbsbsg2789
g0
(g79
g2
Ntp2840
Rp2841
(dp2842
g21
I00
sg48
I00
sg23
I00
sg19
(lp2843
g2687
asg22
Nsg2687
g0
(g1764
g2
Ntp2844
Rp2845
(dp2846
g21
I00
sg48
I00
sg23
I00
sg49
I0
sbsbsg2790
g0
(g79
g2
Ntp2847
Rp2848
(dp2849
g21
I00
sg48
I00
sg23
I00
sg19
(lp2850
g2686
ag2687
asg22
Nsg2686
g0
(g1764
g2
Ntp2851
Rp2852
(dp2853
g21
I00
sg48
I00
sg23
I00
sg49
I1
sbsg2687
g0
(g1764
g2
Ntp2854
Rp2855
(dp2856
g21
I00
sg48
I00
sg23
I00
sg49
I10000000
sbsbsbsg2673
g0
(g79
g2
Ntp2857
Rp2858
(dp2859
g21
I00
sg48
I00
sg23
I00
sg19
(lp2860
sg22
g0
(g224
g2
Ntp2861
Rp2862
(dp2863
g21
I00
sg48
I00
sg23
I00
sg228
g0
(g2677
g2
Ntp2864
Rp2865
(dp2866
g2681
g0
(g79
g2
Ntp2867
Rp2868
(dp2869
g21
I00
sg48
I01
sg23
I00
sg19
(lp2870
g2723
ag2724
ag2725
ag2726
ag2727
ag2728
ag2729
aVfilename
p2871
aVextension
p2872
aVoutput
p2873
asg22
g2675
sg2723
g0
(g224
g2
Ntp2874
Rp2875
(dp2876
g21
I00
sg48
I00
sg23
I00
sg228
g50
sg229
Nsbsg2724
g0
(g224
g2
Ntp2877
Rp2878
(dp2879
g21
I00
sg48
I00
sg23
I00
sg228
g50
sg229
Nsbsg2725
g0
(g224
g2
Ntp2880
Rp2881
(dp2882
g21
I00
sg48
I00
sg23
I00
sg228
g1764
sg229
Nsbsg2726
g0
(g224
g2
Ntp2883
Rp2884
(dp2885
g21
I00
sg48
I00
sg23
I00
sg228
g54
sg229
Nsbsg2727
g0
(g224
g2
Ntp2886
Rp2887
(dp2888
g21
I00
sg48
I00
sg23
I00
sg228
g54
sg229
Nsbsg2728
g0
(g50
g2
Ntp2889
Rp2890
(dp2891
g21
I00
sg48
I00
sg23
I00
sg49
I00
sbsg2729
g0
(g50
g2
Ntp2892
Rp2893
(dp2894
g21
I00
sg48
I00
sg23
I00
sg49
I00
sbsg2871
g0
(g224
g2
Ntp2895
Rp2896
(dp2897
g21
I00
sg48
I00
sg23
I00
sg228
g54
sg229
Nsbsg2872
g0
(g224
g2
Ntp2898
Rp2899
(dp2900
g21
I00
sg48
I00
sg23
I00
sg228
g54
sg229
Nsbsg2873
g0
(g224
g2
Ntp2901
Rp2902
(dp2903
g21
I00
sg48
I00
sg23
I00
sg228
g54
sg229
Nsbsbsg2698
Nsbsg229
Nsbsbsg24
g512
sg26
I13
sV_inProcess
p2904
I00
sbsVDQMStore
p2905
g0
(g2660
g2
Ntp2906
Rp2907
(dp2908
g17
g2905
sg19
(lp2909
Vverbose
p2910
aVsaveByLumi
p2911
aVMEsToSave
p2912
aVtrackME
p2913
aVassertLegacySafe
p2914
aVenableMultiThread
p2915
asg21
I00
sg22
Nsg2910
g0
(g1764
g2
Ntp2916
Rp2917
(dp2918
g21
I00
sg48
I00
sg23
I00
sg49
I0
sbsg23
I00
sg2911
g0
(g50
g2
Ntp2919
Rp2920
(dp2921
g21
I00
sg48
I00
sg23
I00
sg49
I00
sbsg2912
g0
(g192
g193
(lp2922
VDT/02-Segments/03-MeanT0/T0MeanAllWheels
p2923
aVEcalBarrel/EBOccupancyTask/EBOT digi occupancy
p2924
aVEcalEndcap/EEOccupancyTask/EEOT digi occupancy EE -
p2925
aVEcalEndcap/EEOccupancyTask/EEOT digi occupancy EE +
p2926
aVMuons/MuonRecoAnalyzer/
p2927
aVMuons/MuonIdDQM/GlobalMuons/
p2928
aVPixelPhase1/Phase1_MechanicalView/
p2929
aVPixelPhase1/Tracks/
p2930
aVSiStrip/MechanicalView/
p2931
aVTracking/PrimaryVertices/highPurityTracks/pt_0to1/offline/
p2932
aVTracking/TrackParameters/generalTracks/LSanalysis/
p2933
aVTracking/TrackParameters/highPurityTracks/pt_1/LSanalysis/
p2934
aVTracking/TrackParameters/highPurityTracks/pt_0to1/LSanalysis/
p2935
aVTracking/TrackParameters/highPurityTracks/dzPV0p1/LSanalysis/
p2936
aVTracking/TrackParameters/generalTracks/GeneralProperties/
p2937
aVTracking/TrackParameters/highPurityTracks/pt_1/GeneralProperties/
p2938
aVTracking/TrackParameters/highPurityTracks/pt_0to1/GeneralProperties/
p2939
aVTracking/TrackParameters/highPurityTracks/dzPV0p1/GeneralProperties/
p2940
aVTracking/TrackParameters/generalTracks/HitProperties/
p2941
aVTracking/TrackParameters/highPurityTracks/pt_1/HitProperties/
p2942
aVTracking/TrackParameters/highPurityTracks/pt_0to1/HitProperties/
p2943
aVTracking/TrackParameters/highPurityTracks/dzPV0p1/HitProperties/
p2944
aVTracking/TrackParameters/generalTracks/HitProperties/Pixel/
p2945
aVTracking/TrackParameters/highPurityTracks/pt_1/HitProperties/Pixel/
p2946
aVTracking/TrackParameters/highPurityTracks/pt_0to1/HitProperties/Pixel/
p2947
aVTracking/TrackParameters/highPurityTracks/dzPV0p1/HitProperties/Pixel/
p2948
aVTracking/TrackParameters/generalTracks/HitProperties/Strip/
p2949
aVTracking/TrackParameters/highPurityTracks/pt_1/HitProperties/Strip/
p2950
aVTracking/TrackParameters/highPurityTracks/pt_0to1/HitProperties/Strip/
p2951
aVTracking/TrackParameters/highPurityTracks/dzPV0p1/HitProperties/Strip/
p2952
atp2953
Rp2954
(dp2955
g21
I00
sg48
I00
sg23
I00
sg223
I1
sbsg2913
g0
(g54
g2
Ntp2956
Rp2957
(dp2958
g21
I00
sg48
I00
sg23
I00
sg49
g66
sbsg2914
g0
(g50
g2
Ntp2959
Rp2960
(dp2961
g21
I00
sg48
I00
sg23
I00
sg49
I00
sbsg2915
g0
(g50
g2
Ntp2962
Rp2963
(dp2964
g21
I00
sg48
I00
sg23
I00
sg49
I01
sbsg24
g512
sg26
I13
sg2904
I01
sbsVRandomNumberGeneratorService
p2965
g0
(g2660
g2
Ntp2966
Rp2967
(dp2968
g17
g2965
sg19
(lp2969
VexternalLHEProducer
p2970
ag575
aVVtxSmeared
p2971
aVLHCTransport
p2972
aVhiSignalLHCTransport
p2973
aVg4SimHits
p2974
aVmix
p2975
aVmixData
p2976
aVsimSiStripDigiSimLink
p2977
aVsimMuonDTDigis
p2978
aVsimMuonCSCDigis
p2979
aVsimMuonRPCDigis
p2980
aVhiSignal
p2981
aVhiSignalG4SimHits
p2982
aVfamosPileUp
p2983
aVmixGenPU
p2984
aVmixSimCaloHits
p2985
aVmixRecoTracks
p2986
aVfastSimProducer
p2987
aVfastTrackerRecHits
p2988
aVecalRecHit
p2989
aVecalPreshowerRecHit
p2990
aVhbhereco
p2991
aVhoreco
p2992
aVhfreco
p2993
aVparamMuons
p2994
aVl1ParamMuons
p2995
aVMuonSimHits
p2996
aVCTPPSFastRecHits
p2997
aVsimBeamSpotFilter
p2998
aVRPixDetDigitizer
p2999
aVRPSiDetDigitizer
p3000
aVsaveFileName
p3001
aVsimMuonGEMDigis
p3002
asg21
I00
sg22
Nsg2970
g0
(g79
g2
Ntp3003
Rp3004
(dp3005
g21
I00
sg48
I01
sg23
I00
sg19
(lp3006
VinitialSeed
p3007
aVengineName
p3008
asg22
Nsg3007
g0
(g1674
g2
Ntp3009
Rp3010
(dp3011
g21
I00
sg48
I00
sg23
I00
sg49
I234567
sbsg3008
g0
(g54
g2
Ntp3012
Rp3013
(dp3014
g21
I00
sg48
I00
sg23
I00
sg49
VMixMaxRng
p3015
sbsbsg23
I01
sg575
g0
(g79
g2
Ntp3016
Rp3017
(dp3018
g21
I00
sg48
I01
sg23
I00
sg19
(lp3019
g3007
ag3008
asg22
Nsg3007
g0
(g1674
g2
Ntp3020
Rp3021
(dp3022
g21
I00
sg48
I00
sg23
I00
sg49
I123456789
sbsg3008
g3013
sbsg2971
g0
(g79
g2
Ntp3023
Rp3024
(dp3025
g21
I00
sg48
I01
sg23
I00
sg19
(lp3026
g3007
ag3008
asg22
Nsg3007
g0
(g1674
g2
Ntp3027
Rp3028
(dp3029
g21
I00
sg48
I00
sg23
I00
sg49
I98765432
sbsg3008
g3013
sbsg2972
g0
(g79
g2
Ntp3030
Rp3031
(dp3032
g21
I00
sg48
I01
sg23
I00
sg19
(lp3033
g3007
ag3008
asg22
Nsg3007
g0
(g1674
g2
Ntp3034
Rp3035
(dp3036
g21
I00
sg48
I00
sg23
I00
sg49
I87654321
sbsg3008
g0
(g54
g2
Ntp3037
Rp3038
(dp3039
g21
I00
sg48
I00
sg23
I00
sg49
VTRandom3
p3040
sbsbsg2973
g0
(g79
g2
Ntp3041
Rp3042
(dp3043
g21
I00
sg48
I01
sg23
I00
sg19
(lp3044
g3007
ag3008
asg22
Nsg3007
g0
(g1674
g2
Ntp3045
Rp3046
(dp3047
g21
I00
sg48
I00
sg23
I00
sg49
I88776655
sbsg3008
g0
(g54
g2
Ntp3048
Rp3049
(dp3050
g21
I00
sg48
I00
sg23
I00
sg49
g3015
sbsbsg2974
g0
(g79
g2
Ntp3051
Rp3052
(dp3053
g21
I00
sg48
I01
sg23
I00
sg19
(lp3054
g3007
ag3008
asg22
Nsg3007
g0
(g1674
g2
Ntp3055
Rp3056
(dp3057
g21
I00
sg48
I00
sg23
I00
sg49
I11
sbsg3008
g3013
sbsg2975
g0
(g79
g2
Ntp3058
Rp3059
(dp3060
g21
I00
sg48
I01
sg23
I00
sg19
(lp3061
g3007
ag3008
asg22
Nsg3007
g0
(g1674
g2
Ntp3062
Rp3063
(dp3064
g21
I00
sg48
I00
sg23
I00
sg49
I12345
sbsg3008
g3013
sbsg2976
g0
(g79
g2
Ntp3065
Rp3066
(dp3067
g21
I00
sg48
I01
sg23
I00
sg19
(lp3068
g3007
ag3008
asg22
Nsg3007
g0
(g1674
g2
Ntp3069
Rp3070
(dp3071
g21
I00
sg48
I00
sg23
I00
sg49
I12345
sbsg3008
g3013
sbsg2977
g0
(g79
g2
Ntp3072
Rp3073
(dp3074
g21
I00
sg48
I01
sg23
I00
sg19
(lp3075
g3007
ag3008
asg22
Nsg3007
g0
(g1674
g2
Ntp3076
Rp3077
(dp3078
g21
I00
sg48
I00
sg23
I00
sg49
I1234567
sbsg3008
g3013
sbsg2978
g0
(g79
g2
Ntp3079
Rp3080
(dp3081
g21
I00
sg48
I01
sg23
I00
sg19
(lp3082
g3007
ag3008
asg22
Nsg3007
g0
(g1674
g2
Ntp3083
Rp3084
(dp3085
g21
I00
sg48
I00
sg23
I00
sg49
I1234567
sbsg3008
g3013
sbsg2979
g0
(g79
g2
Ntp3086
Rp3087
(dp3088
g21
I00
sg48
I01
sg23
I00
sg19
(lp3089
g3007
ag3008
asg22
Nsg3007
g0
(g1674
g2
Ntp3090
Rp3091
(dp3092
g21
I00
sg48
I00
sg23
I00
sg49
I11223344
sbsg3008
g3013
sbsg2980
g0
(g79
g2
Ntp3093
Rp3094
(dp3095
g21
I00
sg48
I01
sg23
I00
sg19
(lp3096
g3007
ag3008
asg22
Nsg3007
g0
(g1674
g2
Ntp3097
Rp3098
(dp3099
g21
I00
sg48
I00
sg23
I00
sg49
I1234567
sbsg3008
g3013
sbsg2981
g0
(g79
g2
Ntp3100
Rp3101
(dp3102
g21
I00
sg48
I01
sg23
I00
sg19
(lp3103
g3007
ag3008
asg22
Nsg3007
g0
(g1674
g2
Ntp3104
Rp3105
(dp3106
g21
I00
sg48
I00
sg23
I00
sg49
I123456789
sbsg3008
g3013
sbsg2982
g0
(g79
g2
Ntp3107
Rp3108
(dp3109
g21
I00
sg48
I01
sg23
I00
sg19
(lp3110
g3007
ag3008
asg22
Nsg3007
g0
(g1674
g2
Ntp3111
Rp3112
(dp3113
g21
I00
sg48
I00
sg23
I00
sg49
I11
sbsg3008
g3013
sbsg2983
g0
(g79
g2
Ntp3114
Rp3115
(dp3116
g21
I00
sg48
I01
sg23
I00
sg19
(lp3117
g3007
ag3008
asg22
Nsg3007
g0
(g1674
g2
Ntp3118
Rp3119
(dp3120
g21
I00
sg48
I00
sg23
I00
sg49
I918273
sbsg3008
g3049
sbsg2984
g0
(g79
g2
Ntp3121
Rp3122
(dp3123
g21
I00
sg48
I01
sg23
I00
sg19
(lp3124
g3007
ag3008
asg22
Nsg3007
g0
(g1674
g2
Ntp3125
Rp3126
(dp3127
g21
I00
sg48
I00
sg23
I00
sg49
I918273
sbsg3008
g3049
sbsg2985
g0
(g79
g2
Ntp3128
Rp3129
(dp3130
g21
I00
sg48
I01
sg23
I00
sg19
(lp3131
g3007
ag3008
asg22
Nsg3007
g0
(g1674
g2
Ntp3132
Rp3133
(dp3134
g21
I00
sg48
I00
sg23
I00
sg49
I918273
sbsg3008
g3049
sbsg2986
g0
(g79
g2
Ntp3135
Rp3136
(dp3137
g21
I00
sg48
I01
sg23
I00
sg19
(lp3138
g3007
ag3008
asg22
Nsg3007
g0
(g1674
g2
Ntp3139
Rp3140
(dp3141
g21
I00
sg48
I00
sg23
I00
sg49
I918273
sbsg3008
g3049
sbsg2987
g0
(g79
g2
Ntp3142
Rp3143
(dp3144
g21
I00
sg48
I01
sg23
I00
sg19
(lp3145
g3007
ag3008
asg22
Nsg3007
g0
(g1674
g2
Ntp3146
Rp3147
(dp3148
g21
I00
sg48
I00
sg23
I00
sg49
I13579
sbsg3008
g3049
sbsg2988
g0
(g79
g2
Ntp3149
Rp3150
(dp3151
g21
I00
sg48
I01
sg23
I00
sg19
(lp3152
g3007
ag3008
asg22
Nsg3007
g0
(g1674
g2
Ntp3153
Rp3154
(dp3155
g21
I00
sg48
I00
sg23
I00
sg49
I24680
sbsg3008
g3049
sbsg2989
g0
(g79
g2
Ntp3156
Rp3157
(dp3158
g21
I00
sg48
I01
sg23
I00
sg19
(lp3159
g3007
ag3008
asg22
Nsg3007
g0
(g1674
g2
Ntp3160
Rp3161
(dp3162
g21
I00
sg48
I00
sg23
I00
sg49
I654321
sbsg3008
g3049
sbsg2990
g0
(g79
g2
Ntp3163
Rp3164
(dp3165
g21
I00
sg48
I01
sg23
I00
sg19
(lp3166
g3007
ag3008
asg22
Nsg3007
g0
(g1674
g2
Ntp3167
Rp3168
(dp3169
g21
I00
sg48
I00
sg23
I00
sg49
I6541321
sbsg3008
g3049
sbsg2991
g0
(g79
g2
Ntp3170
Rp3171
(dp3172
g21
I00
sg48
I01
sg23
I00
sg19
(lp3173
g3007
ag3008
asg22
Nsg3007
g0
(g1674
g2
Ntp3174
Rp3175
(dp3176
g21
I00
sg48
I00
sg23
I00
sg49
I541321
sbsg3008
g3049
sbsg2992
g0
(g79
g2
Ntp3177
Rp3178
(dp3179
g21
I00
sg48
I01
sg23
I00
sg19
(lp3180
g3007
ag3008
asg22
Nsg3007
g0
(g1674
g2
Ntp3181
Rp3182
(dp3183
g21
I00
sg48
I00
sg23
I00
sg49
I541321
sbsg3008
g3049
sbsg2993
g0
(g79
g2
Ntp3184
Rp3185
(dp3186
g21
I00
sg48
I01
sg23
I00
sg19
(lp3187
g3007
ag3008
asg22
Nsg3007
g0
(g1674
g2
Ntp3188
Rp3189
(dp3190
g21
I00
sg48
I00
sg23
I00
sg49
I541321
sbsg3008
g3049
sbsg2994
g0
(g79
g2
Ntp3191
Rp3192
(dp3193
g21
I00
sg48
I01
sg23
I00
sg19
(lp3194
g3007
ag3008
asg22
Nsg3007
g0
(g1674
g2
Ntp3195
Rp3196
(dp3197
g21
I00
sg48
I00
sg23
I00
sg49
I54525
sbsg3008
g3049
sbsg2995
g0
(g79
g2
Ntp3198
Rp3199
(dp3200
g21
I00
sg48
I01
sg23
I00
sg19
(lp3201
g3007
ag3008
asg22
Nsg3007
g0
(g1674
g2
Ntp3202
Rp3203
(dp3204
g21
I00
sg48
I00
sg23
I00
sg49
I6453209
sbsg3008
g3049
sbsg2996
g0
(g79
g2
Ntp3205
Rp3206
(dp3207
g21
I00
sg48
I01
sg23
I00
sg19
(lp3208
g3007
ag3008
asg22
Nsg3007
g0
(g1674
g2
Ntp3209
Rp3210
(dp3211
g21
I00
sg48
I00
sg23
I00
sg49
I987346
sbsg3008
g3049
sbsg2997
g0
(g79
g2
Ntp3212
Rp3213
(dp3214
g21
I00
sg48
I01
sg23
I00
sg19
(lp3215
g3007
ag3008
asg22
Nsg3007
g0
(g1674
g2
Ntp3216
Rp3217
(dp3218
g21
I00
sg48
I00
sg23
I00
sg49
I1357987
sbsg3008
g3049
sbsg2998
g0
(g79
g2
Ntp3219
Rp3220
(dp3221
g21
I00
sg48
I01
sg23
I00
sg19
(lp3222
g3007
ag3008
asg22
Nsg3007
g0
(g1674
g2
Ntp3223
Rp3224
(dp3225
g21
I00
sg48
I00
sg23
I00
sg49
I87654321
sbsg3008
g3013
sbsg2999
g0
(g79
g2
Ntp3226
Rp3227
(dp3228
g21
I00
sg48
I01
sg23
I00
sg19
(lp3229
g3007
ag3008
asg22
Nsg3007
g0
(g1674
g2
Ntp3230
Rp3231
(dp3232
g21
I00
sg48
I00
sg23
I00
sg49
I137137
sbsg3008
g3013
sbsg3000
g0
(g79
g2
Ntp3233
Rp3234
(dp3235
g21
I00
sg48
I01
sg23
I00
sg19
(lp3236
g3007
ag3008
asg22
Nsg3007
g0
(g1674
g2
Ntp3237
Rp3238
(dp3239
g21
I00
sg48
I00
sg23
I00
sg49
I137137
sbsg3008
g3013
sbsg3001
g0
(g54
g2
Ntp3240
Rp3241
(dp3242
g21
I00
sg48
I00
sg23
I00
sg49
g66
sbsg24
g512
sg26
I13
sg2904
I01
sg3002
g0
(g79
g2
Ntp3243
Rp3244
(dp3245
g21
I00
sg48
I01
sg23
I00
sg19
(lp3246
g3007
ag3008
asg22
Nsg3007
g0
(g1674
g2
Ntp3247
Rp3248
(dp3249
g21
I00
sg48
I00
sg23
I00
sg49
I1234567
sbsg3008
g3013
sbsbsVTFileService
p3250
g0
(g2660
g2
Ntp3251
Rp3252
(dp3253
g17
g3250
sg19
(lp3254
VfileName
p3255
asg21
I00
sg22
Nsg3255
g0
(g54
g2
Ntp3256
Rp3257
(dp3258
g21
I00
sg48
I01
sg23
I00
sg49
VHiForestMiniAOD.root
p3259
sbsg23
I00
sg24
g512
sg26
I13
sg2904
I01
sbssV_Process__essources
p3260
(dp3261
Veegeom
p3262
g0
(cFWCore.ParameterSet.Modules
ESSource
p3263
g2
Ntp3264
Rp3265
(dp3266
g17
VEmptyESSource
p3267
sg19
(lp3268
VrecordName
p3269
aViovIsRunNotTime
p3270
aVfirstValid
p3271
asg21
I00
sg22
Nsg3269
g0
(g54
g2
Ntp3272
Rp3273
(dp3274
g21
I00
sg48
I01
sg23
I00
sg49
VEcalMappingRcd
p3275
sbsg23
I00
sg3270
g0
(g50
g2
Ntp3276
Rp3277
(dp3278
g21
I00
sg48
I01
sg23
I00
sg49
I01
sbsg3271
g0
(cFWCore.ParameterSet.Types
vuint32
p3279
g193
(lp3280
I1
atp3281
Rp3282
(dp3283
g21
I00
sg48
I01
sg23
I00
sbsg24
V/cvmfs/cms.cern.ch/slc7_amd64_gcc10/cms/cmssw/CMSSW_12_4_9/python/Geometry/EcalMapping/EcalMappingRecord_cfi.py
p3284
sg26
I3
sg27
g3262
sbsVDDDetectorESProducerFromDB
p3285
g0
(g3263
g2
Ntp3286
Rp3287
(dp3288
g17
VDDDetectorESProducer
p3289
sg19
(lp3290
VrootDDName
p3291
aVlabel
p3292
aVfromDB
p3293
aVappendToDataLabel
p3294
asg21
I00
sg22
Nsg3291
g0
(g54
g2
Ntp3295
Rp3296
(dp3297
g21
I00
sg48
I01
sg23
I00
sg49
Vcms:OCMS
p3298
sbsg23
I00
sg3292
g0
(g54
g2
Ntp3299
Rp3300
(dp3301
g21
I00
sg48
I01
sg23
I00
sg49
VExtended
p3302
sbsg3293
g0
(g50
g2
Ntp3303
Rp3304
(dp3305
g21
I00
sg48
I01
sg23
I00
sg49
I01
sbsg3294
g0
(g54
g2
Ntp3306
Rp3307
(dp3308
g21
I00
sg48
I01
sg23
I00
sg49
g66
sbsg24
V/cvmfs/cms.cern.ch/slc7_amd64_gcc10/cms/cmssw/CMSSW_12_4_9/cfipython/slc7_amd64_gcc10/DetectorDescription/DDCMS/DDDetectorESProducerFromDB_cfi.py
p3309
sg26
I3
sg27
g3285
sbsVHepPDTESSource
p3310
g0
(g3263
g2
Ntp3311
Rp3312
(dp3313
g17
g3310
sg19
(lp3314
VpdtFileName
p3315
asg21
I00
sg22
Nsg3315
g0
(g2131
g2
Ntp3316
Rp3317
(dp3318
g21
I00
sg48
I01
sg23
I00
sg49
VSimGeneral/HepPDTESSource/data/pythiaparticle.tbl
p3319
sbsg23
I00
sg24
V/cvmfs/cms.cern.ch/slc7_amd64_gcc10/cms/cmssw/CMSSW_12_4_9/python/SimGeneral/HepPDTESSource/pythiapdt_cfi.py
p3320
sg26
I3
sg27
g3310
sbsVGlobalTag
p3321
g0
(g3263
g2
Ntp3322
Rp3323
(dp3324
g17
VPoolDBESSource
p3325
sg19
(lp3326
VDBParameters
p3327
aVconnect
p3328
aVglobaltag
p3329
aVsnapshotTime
p3330
aVtoGet
p3331
aVDumpStat
p3332
aVReconnectEachRun
p3333
aVRefreshAlways
p3334
aVRefreshEachRun
p3335
aVRefreshOpenIOVs
p3336
aVpfnPostfix
p3337
aVpfnPrefix
p3338
asg21
I00
sg22
Nsg3327
g0
(g79
g2
Ntp3339
Rp3340
(dp3341
g21
I00
sg48
I01
sg23
I00
sg19
(lp3342
VauthenticationPath
p3343
aVauthenticationSystem
p3344
aVsecurity
p3345
aVmessageLevel
p3346
aVconnectionTimeout
p3347
asg22
Nsg3343
g0
(g54
g2
Ntp3348
Rp3349
(dp3350
g21
I00
sg48
I00
sg23
I00
sg49
g66
sbsg3344
g0
(g1764
g2
Ntp3351
Rp3352
(dp3353
g21
I00
sg48
I00
sg23
I00
sg49
I0
sbsg3345
g0
(g54
g2
Ntp3354
Rp3355
(dp3356
g21
I00
sg48
I00
sg23
I00
sg49
g66
sbsg3346
g0
(g1764
g2
Ntp3357
Rp3358
(dp3359
g21
I00
sg48
I00
sg23
I00
sg49
I0
sbsg3347
g0
(g1764
g2
Ntp3360
Rp3361
(dp3362
g21
I00
sg48
I00
sg23
I00
sg49
I0
sbsbsg23
I01
sg3328
g0
(g54
g2
Ntp3363
Rp3364
(dp3365
g21
I00
sg48
I01
sg23
I00
sg49
Vfrontier://FrontierProd/CMS_CONDITIONS
p3366
sbsg3329
g532
sg3330
g0
(g54
g2
Ntp3367
Rp3368
(dp3369
g21
I00
sg48
I01
sg23
I00
sg49
V9999-12-31 23:59:59.000
p3370
sbsg3331
g0
(cFWCore.ParameterSet.Types
VPSet
p3371
g193
(lp3372
g0
(g79
g2
Ntp3373
Rp3374
(dp3375
g21
I00
sg48
I01
sg23
I00
sg19
(lp3376
Vrecord
p3377
aVtag
p3378
ag3328
asg22
Nsg3377
g0
(g54
g2
Ntp3379
Rp3380
(dp3381
g21
I00
sg48
I01
sg23
I00
sg49
VBTagTrackProbability3DRcd
p3382
sbsg3378
g0
(g54
g2
Ntp3383
Rp3384
(dp3385
g21
I00
sg48
I01
sg23
I00
sg49
VJPcalib_MC103X_2018PbPb_v4
p3386
sbsg3328
g0
(g54
g2
Ntp3387
Rp3388
(dp3389
g21
I00
sg48
I01
sg23
I00
sg49
Vfrontier://FrontierProd/CMS_CONDITIONS
p3390
sbsbatp3391
Rp3392
(dp3393
g21
I00
sg48
I01
sg23
I00
sg223
I1
sbsg3332
g0
(g50
g2
Ntp3394
Rp3395
(dp3396
g21
I00
sg48
I00
sg23
I00
sg49
I00
sbsg3333
g0
(g50
g2
Ntp3397
Rp3398
(dp3399
g21
I00
sg48
I00
sg23
I00
sg49
I00
sbsg3334
g0
(g50
g2
Ntp3400
Rp3401
(dp3402
g21
I00
sg48
I00
sg23
I00
sg49
I00
sbsg3335
g0
(g50
g2
Ntp3403
Rp3404
(dp3405
g21
I00
sg48
I00
sg23
I00
sg49
I00
sbsg3336
g0
(g50
g2
Ntp3406
Rp3407
(dp3408
g21
I00
sg48
I00
sg23
I00
sg49
I00
sbsg3337
g0
(g54
g2
Ntp3409
Rp3410
(dp3411
g21
I00
sg48
I00
sg23
I00
sg49
g66
sbsg3338
g0
(g54
g2
Ntp3412
Rp3413
(dp3414
g21
I00
sg48
I00
sg23
I00
sg49
g66
sbsg24
V/cvmfs/cms.cern.ch/slc7_amd64_gcc10/cms/cmssw/CMSSW_12_4_9/python/CondCore/ESSources/CondDBESSource_cfi.py
p3415
sg26
I8
sg27
g3321
sbsVHcalTimeSlewEP
p3416
g0
(g3263
g2
Ntp3417
Rp3418
(dp3419
g17
g3416
sg19
(lp3420
g3294
aVtimeSlewParametersM2
p3421
aVtimeSlewParametersM3
p3422
asg21
I00
sg22
Nsg3294
g0
(g54
g2
Ntp3423
Rp3424
(dp3425
g21
I00
sg48
I01
sg23
I00
sg49
VHBHE
p3426
sbsg23
I00
sg3421
g0
(g3371
g193
(lp3427
g0
(g79
g2
Ntp3428
Rp3429
(dp3430
g21
I00
sg48
I01
sg23
I00
sg19
(lp3431
Vtzero
p3432
aVslope
p3433
aVtmax
p3434
asg22
Nsg3432
g0
(g44
g2
Ntp3435
Rp3436
(dp3437
g21
I00
sg48
I01
sg23
I00
sg49
F23.960177
sbsg3433
g0
(g44
g2
Ntp3438
Rp3439
(dp3440
g21
I00
sg48
I01
sg23
I00
sg49
F-3.178648
sbsg3434
g0
(g44
g2
Ntp3441
Rp3442
(dp3443
g21
I00
sg48
I01
sg23
I00
sg49
F16.0
sbsbag0
(g79
g2
Ntp3444
Rp3445
(dp3446
g21
I00
sg48
I01
sg23
I00
sg19
(lp3447
g3432
ag3433
ag3434
asg22
Nsg3432
g0
(g44
g2
Ntp3448
Rp3449
(dp3450
g21
I00
sg48
I01
sg23
I00
sg49
F11.977461
sbsg3433
g0
(g44
g2
Ntp3451
Rp3452
(dp3453
g21
I00
sg48
I01
sg23
I00
sg49
F-1.5610227
sbsg3434
g0
(g44
g2
Ntp3454
Rp3455
(dp3456
g21
I00
sg48
I01
sg23
I00
sg49
F10.0
sbsbag0
(g79
g2
Ntp3457
Rp3458
(dp3459
g21
I00
sg48
I01
sg23
I00
sg19
(lp3460
g3432
ag3433
ag3434
asg22
Nsg3432
g0
(g44
g2
Ntp3461
Rp3462
(dp3463
g21
I00
sg48
I01
sg23
I00
sg49
F9.109694
sbsg3433
g0
(g44
g2
Ntp3464
Rp3465
(dp3466
g21
I00
sg48
I01
sg23
I00
sg49
F-1.075824
sbsg3434
g0
(g44
g2
Ntp3467
Rp3468
(dp3469
g21
I00
sg48
I01
sg23
I00
sg49
F6.25
sbsbatp3470
Rp3471
(dp3472
g21
I00
sg48
I01
sg23
I00
sg223
I1
sbsg3422
g0
(g3371
g193
(lp3473
g0
(g79
g2
Ntp3474
Rp3475
(dp3476
g21
I00
sg48
I01
sg23
I00
sg19
(lp3477
Vcap
p3478
aVtspar0
p3479
aVtspar1
p3480
aVtspar2
p3481
aVtspar0_siPM
p3482
aVtspar1_siPM
p3483
aVtspar2_siPM
p3484
asg22
Nsg3478
g0
(g44
g2
Ntp3485
Rp3486
(dp3487
g21
I00
sg48
I01
sg23
I00
sg49
F6.0
sbsg3479
g0
(g44
g2
Ntp3488
Rp3489
(dp3490
g21
I00
sg48
I01
sg23
I00
sg49
F12.2999
sbsg3480
g0
(g44
g2
Ntp3491
Rp3492
(dp3493
g21
I00
sg48
I01
sg23
I00
sg49
F-2.19142
sbsg3481
g0
(g44
g2
Ntp3494
Rp3495
(dp3496
g21
I00
sg48
I01
sg23
I00
sg49
F0.0
sbsg3482
g0
(g44
g2
Ntp3497
Rp3498
(dp3499
g21
I00
sg48
I01
sg23
I00
sg49
F0.0
sbsg3483
g0
(g44
g2
Ntp3500
Rp3501
(dp3502
g21
I00
sg48
I01
sg23
I00
sg49
F0.0
sbsg3484
g0
(g44
g2
Ntp3503
Rp3504
(dp3505
g21
I00
sg48
I01
sg23
I00
sg49
F0.0
sbsbag0
(g79
g2
Ntp3506
Rp3507
(dp3508
g21
I00
sg48
I01
sg23
I00
sg19
(lp3509
g3478
ag3479
ag3480
ag3481
ag3482
ag3483
ag3484
asg22
Nsg3478
g0
(g44
g2
Ntp3510
Rp3511
(dp3512
g21
I00
sg48
I01
sg23
I00
sg49
F6.0
sbsg3479
g0
(g44
g2
Ntp3513
Rp3514
(dp3515
g21
I00
sg48
I01
sg23
I00
sg49
F15.5
sbsg3480
g0
(g44
g2
Ntp3516
Rp3517
(dp3518
g21
I00
sg48
I01
sg23
I00
sg49
F-3.2
sbsg3481
g0
(g44
g2
Ntp3519
Rp3520
(dp3521
g21
I00
sg48
I01
sg23
I00
sg49
F32.0
sbsg3482
g0
(g44
g2
Ntp3522
Rp3523
(dp3524
g21
I00
sg48
I01
sg23
I00
sg49
F0.0
sbsg3483
g0
(g44
g2
Ntp3525
Rp3526
(dp3527
g21
I00
sg48
I01
sg23
I00
sg49
F0.0
sbsg3484
g0
(g44
g2
Ntp3528
Rp3529
(dp3530
g21
I00
sg48
I01
sg23
I00
sg49
F0.0
sbsbag0
(g79
g2
Ntp3531
Rp3532
(dp3533
g21
I00
sg48
I01
sg23
I00
sg19
(lp3534
g3478
ag3479
ag3480
ag3481
ag3482
ag3483
ag3484
asg22
Nsg3478
g0
(g44
g2
Ntp3535
Rp3536
(dp3537
g21
I00
sg48
I01
sg23
I00
sg49
F6.0
sbsg3479
g0
(g44
g2
Ntp3538
Rp3539
(dp3540
g21
I00
sg48
I01
sg23
I00
sg49
F12.2999
sbsg3480
g0
(g44
g2
Ntp3541
Rp3542
(dp3543
g21
I00
sg48
I01
sg23
I00
sg49
F-2.19142
sbsg3481
g0
(g44
g2
Ntp3544
Rp3545
(dp3546
g21
I00
sg48
I01
sg23
I00
sg49
F0.0
sbsg3482
g0
(g44
g2
Ntp3547
Rp3548
(dp3549
g21
I00
sg48
I01
sg23
I00
sg49
F0.0
sbsg3483
g0
(g44
g2
Ntp3550
Rp3551
(dp3552
g21
I00
sg48
I01
sg23
I00
sg49
F0.0
sbsg3484
g0
(g44
g2
Ntp3553
Rp3554
(dp3555
g21
I00
sg48
I01
sg23
I00
sg49
F0.0
sbsbag0
(g79
g2
Ntp3556
Rp3557
(dp3558
g21
I00
sg48
I01
sg23
I00
sg19
(lp3559
g3478
ag3479
ag3480
ag3481
ag3482
ag3483
ag3484
asg22
Nsg3478
g0
(g44
g2
Ntp3560
Rp3561
(dp3562
g21
I00
sg48
I01
sg23
I00
sg49
F6.0
sbsg3479
g0
(g44
g2
Ntp3563
Rp3564
(dp3565
g21
I00
sg48
I01
sg23
I00
sg49
F12.2999
sbsg3480
g0
(g44
g2
Ntp3566
Rp3567
(dp3568
g21
I00
sg48
I01
sg23
I00
sg49
F-2.19142
sbsg3481
g0
(g44
g2
Ntp3569
Rp3570
(dp3571
g21
I00
sg48
I01
sg23
I00
sg49
F0.0
sbsg3482
g0
(g44
g2
Ntp3572
Rp3573
(dp3574
g21
I00
sg48
I01
sg23
I00
sg49
F0.0
sbsg3483
g0
(g44
g2
Ntp3575
Rp3576
(dp3577
g21
I00
sg48
I01
sg23
I00
sg49
F0.0
sbsg3484
g0
(g44
g2
Ntp3578
Rp3579
(dp3580
g21
I00
sg48
I01
sg23
I00
sg49
F0.0
sbsbatp3581
Rp3582
(dp3583
g21
I00
sg48
I01
sg23
I00
sg223
I1
sbsg24
V/cvmfs/cms.cern.ch/slc7_amd64_gcc10/cms/cmssw/CMSSW_12_4_9/python/CalibCalorimetry/HcalPlugins/HcalTimeSlew_cff.py
p3584
sg26
I3
sg27
g3416
sbsVes_hardcode
p3585
g0
(g3263
g2
Ntp3586
Rp3587
(dp3588
g17
VHcalHardcodeCalibrations
p3589
sg19
(lp3590
g3331
aViLumi
p3591
aVHBRecalibration
p3592
aVHBreCalibCutoff
p3593
aVHBmeanenergies
p3594
aVHERecalibration
p3595
aVHEreCalibCutoff
p3596
aVHEmeanenergies
p3597
aVHFRecalibration
p3598
aVHFRecalParameterBlock
p3599
aVGainWidthsForTrigPrims
p3600
aVuseHBUpgrade
p3601
aVuseHEUpgrade
p3602
aVuseHFUpgrade
p3603
aVuseHOUpgrade
p3604
aVtestHFQIE10
p3605
aVtestHEPlan1
p3606
aVkillHE
p3607
aVuseLayer0Weight
p3608
aVuseIeta18depth1
p3609
aVhb
p3610
aVhe
p3611
aVhf
p3612
aVho
p3613
aVhbUpgrade
p3614
aVheUpgrade
p3615
aVhfUpgrade
p3616
aVSiPMCharacteristics
p3617
asg21
I00
sg22
Nsg3331
g0
(g192
g193
(lp3618
VGainWidths
p3619
atp3620
Rp3621
(dp3622
g21
I00
sg48
I00
sg23
I00
sg223
I1
sbsg23
I01
sg3591
g0
(g44
g2
Ntp3623
Rp3624
(dp3625
g21
I00
sg48
I01
sg23
I00
sg49
F-1.0
sbsg3592
g0
(g50
g2
Ntp3626
Rp3627
(dp3628
g21
I00
sg48
I01
sg23
I00
sg49
I00
sbsg3593
g0
(g44
g2
Ntp3629
Rp3630
(dp3631
g21
I00
sg48
I01
sg23
I00
sg49
F100.0
sbsg3594
g0
(g2131
g2
Ntp3632
Rp3633
(dp3634
g21
I00
sg48
I01
sg23
I00
sg49
VCalibCalorimetry/HcalPlugins/data/meanenergiesHB.txt
p3635
sbsg3595
g0
(g50
g2
Ntp3636
Rp3637
(dp3638
g21
I00
sg48
I01
sg23
I00
sg49
I00
sbsg3596
g0
(g44
g2
Ntp3639
Rp3640
(dp3641
g21
I00
sg48
I01
sg23
I00
sg49
F100.0
sbsg3597
g0
(g2131
g2
Ntp3642
Rp3643
(dp3644
g21
I00
sg48
I01
sg23
I00
sg49
VCalibCalorimetry/HcalPlugins/data/meanenergiesHE.txt
p3645
sbsg3598
g0
(g50
g2
Ntp3646
Rp3647
(dp3648
g21
I00
sg48
I01
sg23
I00
sg49
I00
sbsg3599
g0
(g79
g2
Ntp3649
Rp3650
(dp3651
g21
I00
sg48
I01
sg23
I00
sg19
(lp3652
VHFdepthOneParameterA
p3653
aVHFdepthOneParameterB
p3654
aVHFdepthTwoParameterA
p3655
aVHFdepthTwoParameterB
p3656
asg22
Nsg3653
g0
(cFWCore.ParameterSet.Types
vdouble
p3657
g193
(lp3658
F0.004123
aF0.00602
aF0.008201
aF0.010489
aF0.013379
aF0.016997
aF0.021464
aF0.027371
aF0.034195
aF0.044807
aF0.058939
aF0.125497
atp3659
Rp3660
(dp3661
g21
I00
sg48
I01
sg23
I00
sbsg3654
g0
(g3657
g193
(lp3662
F-4e-06
aF-2e-06
aF0.0
aF4e-06
aF1.5e-05
aF2.6e-05
aF6.3e-05
aF8.4e-05
aF0.00016
aF0.000107
aF0.000425
aF0.000209
atp3663
Rp3664
(dp3665
g21
I00
sg48
I01
sg23
I00
sbsg3655
g0
(g3657
g193
(lp3666
F0.002861
aF0.004168
aF0.0064
aF0.008388
aF0.011601
aF0.014425
aF0.018633
aF0.023232
aF0.028274
aF0.035447
aF0.051579
aF0.086593
atp3667
Rp3668
(dp3669
g21
I00
sg48
I01
sg23
I00
sbsg3656
g0
(g3657
g193
(lp3670
F-2e-06
aF-0.0
aF-7e-06
aF-6e-06
aF-2e-06
aF1e-06
aF1.9e-05
aF3.1e-05
aF6.7e-05
aF1.2e-05
aF0.000157
aF-3e-06
atp3671
Rp3672
(dp3673
g21
I00
sg48
I01
sg23
I00
sbsg27
g3599
sbsg3600
g0
(g50
g2
Ntp3674
Rp3675
(dp3676
g21
I00
sg48
I01
sg23
I00
sg49
I00
sbsg3601
g0
(g50
g2
Ntp3677
Rp3678
(dp3679
g21
I00
sg48
I01
sg23
I00
sg49
I01
sbsg3602
g0
(g50
g2
Ntp3680
Rp3681
(dp3682
g21
I00
sg48
I01
sg23
I00
sg49
I01
sbsg3603
g0
(g50
g2
Ntp3683
Rp3684
(dp3685
g21
I00
sg48
I01
sg23
I00
sg49
I01
sbsg3604
g0
(g50
g2
Ntp3686
Rp3687
(dp3688
g21
I00
sg48
I01
sg23
I00
sg49
I01
sbsg3605
g0
(g50
g2
Ntp3689
Rp3690
(dp3691
g21
I00
sg48
I01
sg23
I00
sg49
I00
sbsg3606
g0
(g50
g2
Ntp3692
Rp3693
(dp3694
g21
I00
sg48
I01
sg23
I00
sg49
I00
sbsg3607
g0
(g50
g2
Ntp3695
Rp3696
(dp3697
g21
I00
sg48
I01
sg23
I00
sg49
I00
sbsg3608
g0
(g50
g2
Ntp3698
Rp3699
(dp3700
g21
I00
sg48
I01
sg23
I00
sg49
I01
sbsg3609
g0
(g50
g2
Ntp3701
Rp3702
(dp3703
g21
I00
sg48
I01
sg23
I00
sg49
I00
sbsg3610
g0
(g79
g2
Ntp3704
Rp3705
(dp3706
g21
I00
sg48
I01
sg23
I00
sg19
(lp3707
Vpedestal
p3708
aVpedestalWidth
p3709
aVgain
p3710
aVgainWidth
p3711
aVzsThreshold
p3712
aVqieType
p3713
aVqieOffset
p3714
aVqieSlope
p3715
aVmcShape
p3716
aVrecoShape
p3717
aVphotoelectronsToAnalog
p3718
aVdarkCurrent
p3719
aVnoiseCorrelation
p3720
aVdoRadiationDamage
p3721
asg22
Nsg3708
g0
(g44
g2
Ntp3722
Rp3723
(dp3724
g21
I00
sg48
I01
sg23
I00
sg49
F3.285
sbsg3709
g0
(g44
g2
Ntp3725
Rp3726
(dp3727
g21
I00
sg48
I01
sg23
I00
sg49
F0.809
sbsg3710
g0
(g3657
g193
(lp3728
F0.19
atp3729
Rp3730
(dp3731
g21
I00
sg48
I01
sg23
I00
sbsg3711
g0
(g3657
g193
(lp3732
F0.0
atp3733
Rp3734
(dp3735
g21
I00
sg48
I01
sg23
I00
sbsg3712
g0
(g1764
g2
Ntp3736
Rp3737
(dp3738
g21
I00
sg48
I01
sg23
I00
sg49
I8
sbsg3713
g0
(g1764
g2
Ntp3739
Rp3740
(dp3741
g21
I00
sg48
I01
sg23
I00
sg49
I0
sbsg3714
g0
(g3657
g193
(lp3742
F-0.49
aF1.8
aF7.2
aF37.9
atp3743
Rp3744
(dp3745
g21
I00
sg48
I01
sg23
I00
sbsg3715
g0
(g3657
g193
(lp3746
F0.912
aF0.917
aF0.922
aF0.923
atp3747
Rp3748
(dp3749
g21
I00
sg48
I01
sg23
I00
sbsg3716
g0
(g1764
g2
Ntp3750
Rp3751
(dp3752
g21
I00
sg48
I01
sg23
I00
sg49
I125
sbsg3717
g0
(g1764
g2
Ntp3753
Rp3754
(dp3755
g21
I00
sg48
I01
sg23
I00
sg49
I105
sbsg3718
g0
(g44
g2
Ntp3756
Rp3757
(dp3758
g21
I00
sg48
I01
sg23
I00
sg49
F0.3305
sbsg3719
g0
(g3657
g193
(lp3759
F0.0
atp3760
Rp3761
(dp3762
g21
I00
sg48
I01
sg23
I00
sbsg3720
g0
(g3657
g193
(lp3763
F0.0
atp3764
Rp3765
(dp3766
g21
I00
sg48
I01
sg23
I00
sbsg3721
g0
(g50
g2
Ntp3767
Rp3768
(dp3769
g21
I00
sg48
I01
sg23
I00
sg49
I00
sbsbsg3611
g0
(g79
g2
Ntp3770
Rp3771
(dp3772
g21
I00
sg48
I01
sg23
I00
sg19
(lp3773
g3708
ag3709
ag3710
ag3711
ag3712
ag3713
ag3714
ag3715
ag3716
ag3717
ag3718
ag3719
ag3720
ag3721
asg22
Nsg3708
g0
(g44
g2
Ntp3774
Rp3775
(dp3776
g21
I00
sg48
I01
sg23
I00
sg49
F3.163
sbsg3709
g0
(g44
g2
Ntp3777
Rp3778
(dp3779
g21
I00
sg48
I01
sg23
I00
sg49
F0.9698
sbsg3710
g0
(g3657
g193
(lp3780
F0.23
atp3781
Rp3782
(dp3783
g21
I00
sg48
I01
sg23
I00
sbsg3711
g0
(g3657
g193
(lp3784
I0
atp3785
Rp3786
(dp3787
g21
I00
sg48
I01
sg23
I00
sbsg3712
g0
(g1764
g2
Ntp3788
Rp3789
(dp3790
g21
I00
sg48
I01
sg23
I00
sg49
I9
sbsg3713
g0
(g1764
g2
Ntp3791
Rp3792
(dp3793
g21
I00
sg48
I01
sg23
I00
sg49
I0
sbsg3714
g0
(g3657
g193
(lp3794
F-0.38
aF2.0
aF7.6
aF39.6
atp3795
Rp3796
(dp3797
g21
I00
sg48
I01
sg23
I00
sbsg3715
g0
(g3657
g193
(lp3798
F0.912
aF0.916
aF0.92
aF0.922
atp3799
Rp3800
(dp3801
g21
I00
sg48
I01
sg23
I00
sbsg3716
g0
(g1764
g2
Ntp3802
Rp3803
(dp3804
g21
I00
sg48
I01
sg23
I00
sg49
I125
sbsg3717
g0
(g1764
g2
Ntp3805
Rp3806
(dp3807
g21
I00
sg48
I01
sg23
I00
sg49
I105
sbsg3718
g0
(g44
g2
Ntp3808
Rp3809
(dp3810
g21
I00
sg48
I01
sg23
I00
sg49
F0.3305
sbsg3719
g0
(g3657
g193
(lp3811
F0.0
atp3812
Rp3813
(dp3814
g21
I00
sg48
I01
sg23
I00
sbsg3720
g0
(g3657
g193
(lp3815
F0.0
atp3816
Rp3817
(dp3818
g21
I00
sg48
I01
sg23
I00
sbsg3721
g0
(g50
g2
Ntp3819
Rp3820
(dp3821
g21
I00
sg48
I01
sg23
I00
sg49
I00
sbsbsg3612
g0
(g79
g2
Ntp3822
Rp3823
(dp3824
g21
I00
sg48
I01
sg23
I00
sg19
(lp3825
g3708
ag3709
ag3710
ag3711
ag3712
ag3713
ag3714
ag3715
ag3716
ag3717
ag3718
ag3719
ag3720
ag3721
asg22
Nsg3708
g0
(g44
g2
Ntp3826
Rp3827
(dp3828
g21
I00
sg48
I01
sg23
I00
sg49
F9.354
sbsg3709
g0
(g44
g2
Ntp3829
Rp3830
(dp3831
g21
I00
sg48
I01
sg23
I00
sg49
F2.516
sbsg3710
g0
(g3657
g193
(lp3832
F0.14
aF0.135
atp3833
Rp3834
(dp3835
g21
I00
sg48
I01
sg23
I00
sbsg3711
g0
(g3657
g193
(lp3836
F0.0
aF0.0
atp3837
Rp3838
(dp3839
g21
I00
sg48
I01
sg23
I00
sbsg3712
g0
(g1764
g2
Ntp3840
Rp3841
(dp3842
g21
I00
sg48
I01
sg23
I00
sg49
I-9999
sbsg3713
g0
(g1764
g2
Ntp3843
Rp3844
(dp3845
g21
I00
sg48
I01
sg23
I00
sg49
I0
sbsg3714
g0
(g3657
g193
(lp3846
F-0.87
aF1.4
aF7.8
aF-29.6
atp3847
Rp3848
(dp3849
g21
I00
sg48
I01
sg23
I00
sbsg3715
g0
(g3657
g193
(lp3850
F0.359
aF0.358
aF0.36
aF0.367
atp3851
Rp3852
(dp3853
g21
I00
sg48
I01
sg23
I00
sbsg3716
g0
(g1764
g2
Ntp3854
Rp3855
(dp3856
g21
I00
sg48
I01
sg23
I00
sg49
I301
sbsg3717
g0
(g1764
g2
Ntp3857
Rp3858
(dp3859
g21
I00
sg48
I01
sg23
I00
sg49
I301
sbsg3718
g0
(g44
g2
Ntp3860
Rp3861
(dp3862
g21
I00
sg48
I01
sg23
I00
sg49
F0.0
sbsg3719
g0
(g3657
g193
(lp3863
F0.0
atp3864
Rp3865
(dp3866
g21
I00
sg48
I01
sg23
I00
sbsg3720
g0
(g3657
g193
(lp3867
F0.0
atp3868
Rp3869
(dp3870
g21
I00
sg48
I01
sg23
I00
sbsg3721
g0
(g50
g2
Ntp3871
Rp3872
(dp3873
g21
I00
sg48
I01
sg23
I00
sg49
I00
sbsbsg3613
g0
(g79
g2
Ntp3874
Rp3875
(dp3876
g21
I00
sg48
I01
sg23
I00
sg19
(lp3877
g3708
ag3709
ag3710
ag3711
ag3712
ag3713
ag3714
ag3715
ag3716
ag3717
ag3718
ag3719
ag3720
ag3721
asg22
Nsg3708
g0
(g44
g2
Ntp3878
Rp3879
(dp3880
g21
I00
sg48
I01
sg23
I00
sg49
F12.06
sbsg3709
g0
(g44
g2
Ntp3881
Rp3882
(dp3883
g21
I00
sg48
I01
sg23
I00
sg49
F0.6285
sbsg3710
g0
(g3657
g193
(lp3884
F0.006
aF0.0087
atp3885
Rp3886
(dp3887
g21
I00
sg48
I01
sg23
I00
sbsg3711
g0
(g3657
g193
(lp3888
F0.0
aF0.0
atp3889
Rp3890
(dp3891
g21
I00
sg48
I01
sg23
I00
sbsg3712
g0
(g1764
g2
Ntp3892
Rp3893
(dp3894
g21
I00
sg48
I01
sg23
I00
sg49
I24
sbsg3713
g0
(g1764
g2
Ntp3895
Rp3896
(dp3897
g21
I00
sg48
I01
sg23
I00
sg49
I0
sbsg3714
g0
(g3657
g193
(lp3898
F-0.44
aF1.4
aF7.1
aF38.5
atp3899
Rp3900
(dp3901
g21
I00
sg48
I01
sg23
I00
sbsg3715
g0
(g3657
g193
(lp3902
F0.907
aF0.915
aF0.92
aF0.921
atp3903
Rp3904
(dp3905
g21
I00
sg48
I01
sg23
I00
sbsg3716
g0
(g1764
g2
Ntp3906
Rp3907
(dp3908
g21
I00
sg48
I01
sg23
I00
sg49
I201
sbsg3717
g0
(g1764
g2
Ntp3909
Rp3910
(dp3911
g21
I00
sg48
I01
sg23
I00
sg49
I201
sbsg3718
g0
(g44
g2
Ntp3912
Rp3913
(dp3914
g21
I00
sg48
I01
sg23
I00
sg49
F4.0
sbsg3719
g0
(g3657
g193
(lp3915
F0.0
atp3916
Rp3917
(dp3918
g21
I00
sg48
I01
sg23
I00
sbsg3720
g0
(g3657
g193
(lp3919
F0.0
atp3920
Rp3921
(dp3922
g21
I00
sg48
I01
sg23
I00
sbsg3721
g0
(g50
g2
Ntp3923
Rp3924
(dp3925
g21
I00
sg48
I01
sg23
I00
sg49
I00
sbsbsg3614
g0
(g79
g2
Ntp3926
Rp3927
(dp3928
g21
I00
sg48
I01
sg23
I00
sg19
(lp3929
g3708
ag3709
ag3710
ag3711
ag3712
ag3713
ag3714
ag3715
ag3716
ag3717
ag3718
ag3719
ag3720
ag3721
aVradiationDamage
p3930
asg22
Nsg3708
g0
(g44
g2
Ntp3931
Rp3932
(dp3933
g21
I00
sg48
I01
sg23
I00
sg49
F17.3
sbsg3709
g0
(g44
g2
Ntp3934
Rp3935
(dp3936
g21
I00
sg48
I01
sg23
I00
sg49
F1.5
sbsg3710
g0
(g3657
g193
(lp3937
F0.0006252
atp3938
Rp3939
(dp3940
g21
I00
sg48
I01
sg23
I00
sbsg3711
g0
(g3657
g193
(lp3941
I0
atp3942
Rp3943
(dp3944
g21
I00
sg48
I01
sg23
I00
sbsg3712
g0
(g1764
g2
Ntp3945
Rp3946
(dp3947
g21
I00
sg48
I01
sg23
I00
sg49
I16
sbsg3713
g0
(g1764
g2
Ntp3948
Rp3949
(dp3950
g21
I00
sg48
I01
sg23
I00
sg49
I2
sbsg3714
g0
(g3657
g193
(lp3951
F0.0
aF0.0
aF0.0
aF0.0
atp3952
Rp3953
(dp3954
g21
I00
sg48
I01
sg23
I00
sbsg3715
g0
(g3657
g193
(lp3955
F0.05376
aF0.05376
aF0.05376
aF0.05376
atp3956
Rp3957
(dp3958
g21
I00
sg48
I01
sg23
I00
sbsg3716
g0
(g1764
g2
Ntp3959
Rp3960
(dp3961
g21
I00
sg48
I01
sg23
I00
sg49
I206
sbsg3717
g0
(g1764
g2
Ntp3962
Rp3963
(dp3964
g21
I00
sg48
I01
sg23
I00
sg49
I208
sbsg3718
g0
(g44
g2
Ntp3965
Rp3966
(dp3967
g21
I00
sg48
I01
sg23
I00
sg49
F40.0
sbsg3719
g0
(g3657
g193
(lp3968
F0.01
aF0.015
atp3969
Rp3970
(dp3971
g21
I00
sg48
I01
sg23
I00
sbsg3720
g0
(g3657
g193
(lp3972
F0.26
aF0.254
atp3973
Rp3974
(dp3975
g21
I00
sg48
I01
sg23
I00
sbsg3721
g0
(g50
g2
Ntp3976
Rp3977
(dp3978
g21
I00
sg48
I01
sg23
I00
sg49
I01
sbsg3930
g0
(g79
g2
Ntp3979
Rp3980
(dp3981
g21
I00
sg48
I01
sg23
I00
sg19
(lp3982
VtemperatureBase
p3983
aVtemperatureNew
p3984
aVintlumiOffset
p3985
aVdepVsTemp
p3986
aVintlumiToNeutrons
p3987
aVdepVsNeutrons
p3988
asg22
Nsg3983
g0
(g44
g2
Ntp3989
Rp3990
(dp3991
g21
I00
sg48
I01
sg23
I00
sg49
I20
sbsg3984
g0
(g44
g2
Ntp3992
Rp3993
(dp3994
g21
I00
sg48
I01
sg23
I00
sg49
I-5
sbsg3985
g0
(g44
g2
Ntp3995
Rp3996
(dp3997
g21
I00
sg48
I01
sg23
I00
sg49
I150
sbsg3986
g0
(g44
g2
Ntp3998
Rp3999
(dp4000
g21
I00
sg48
I01
sg23
I00
sg49
F0.0631
sbsg3987
g0
(g44
g2
Ntp4001
Rp4002
(dp4003
g21
I00
sg48
I01
sg23
I00
sg49
F367000000.0
sbsg3988
g0
(g3657
g193
(lp4004
F5.543e-10
aF8.012e-10
atp4005
Rp4006
(dp4007
g21
I00
sg48
I01
sg23
I00
sbsbsbsg3615
g0
(g79
g2
Ntp4008
Rp4009
(dp4010
g21
I00
sg48
I01
sg23
I00
sg19
(lp4011
g3708
ag3709
ag3710
ag3711
ag3712
ag3713
ag3714
ag3715
ag3716
ag3717
ag3718
ag3719
ag3720
ag3721
ag3930
asg22
Nsg3708
g0
(g44
g2
Ntp4012
Rp4013
(dp4014
g21
I00
sg48
I01
sg23
I00
sg49
F17.3
sbsg3709
g0
(g44
g2
Ntp4015
Rp4016
(dp4017
g21
I00
sg48
I01
sg23
I00
sg49
F1.5
sbsg3710
g0
(g3657
g193
(lp4018
F0.0006252
atp4019
Rp4020
(dp4021
g21
I00
sg48
I01
sg23
I00
sbsg3711
g0
(g3657
g193
(lp4022
I0
atp4023
Rp4024
(dp4025
g21
I00
sg48
I01
sg23
I00
sbsg3712
g0
(g1764
g2
Ntp4026
Rp4027
(dp4028
g21
I00
sg48
I01
sg23
I00
sg49
I16
sbsg3713
g0
(g1764
g2
Ntp4029
Rp4030
(dp4031
g21
I00
sg48
I01
sg23
I00
sg49
I2
sbsg3714
g0
(g3657
g193
(lp4032
F0.0
aF0.0
aF0.0
aF0.0
atp4033
Rp4034
(dp4035
g21
I00
sg48
I01
sg23
I00
sbsg3715
g0
(g3657
g193
(lp4036
F0.05376
aF0.05376
aF0.05376
aF0.05376
atp4037
Rp4038
(dp4039
g21
I00
sg48
I01
sg23
I00
sbsg3716
g0
(g1764
g2
Ntp4040
Rp4041
(dp4042
g21
I00
sg48
I01
sg23
I00
sg49
I206
sbsg3717
g0
(g1764
g2
Ntp4043
Rp4044
(dp4045
g21
I00
sg48
I01
sg23
I00
sg49
I208
sbsg3718
g0
(g44
g2
Ntp4046
Rp4047
(dp4048
g21
I00
sg48
I01
sg23
I00
sg49
F40.0
sbsg3719
g0
(g3657
g193
(lp4049
F0.01
aF0.015
atp4050
Rp4051
(dp4052
g21
I00
sg48
I01
sg23
I00
sbsg3720
g0
(g3657
g193
(lp4053
F0.26
aF0.254
atp4054
Rp4055
(dp4056
g21
I00
sg48
I01
sg23
I00
sbsg3721
g0
(g50
g2
Ntp4057
Rp4058
(dp4059
g21
I00
sg48
I01
sg23
I00
sg49
I01
sbsg3930
g0
(g79
g2
Ntp4060
Rp4061
(dp4062
g21
I00
sg48
I01
sg23
I00
sg19
(lp4063
g3983
ag3984
ag3985
ag3986
ag3987
ag3988
asg22
Nsg3983
g0
(g44
g2
Ntp4064
Rp4065
(dp4066
g21
I00
sg48
I01
sg23
I00
sg49
I20
sbsg3984
g0
(g44
g2
Ntp4067
Rp4068
(dp4069
g21
I00
sg48
I01
sg23
I00
sg49
I5
sbsg3985
g0
(g44
g2
Ntp4070
Rp4071
(dp4072
g21
I00
sg48
I01
sg23
I00
sg49
I75
sbsg3986
g0
(g44
g2
Ntp4073
Rp4074
(dp4075
g21
I00
sg48
I01
sg23
I00
sg49
F0.0631
sbsg3987
g0
(g44
g2
Ntp4076
Rp4077
(dp4078
g21
I00
sg48
I01
sg23
I00
sg49
F29200000.0
sbsg3988
g0
(g3657
g193
(lp4079
F5.543e-10
aF8.012e-10
atp4080
Rp4081
(dp4082
g21
I00
sg48
I01
sg23
I00
sbsbsbsg3616
g0
(g79
g2
Ntp4083
Rp4084
(dp4085
g21
I00
sg48
I01
sg23
I00
sg19
(lp4086
g3708
ag3709
ag3710
ag3711
ag3712
ag3713
ag3714
ag3715
ag3716
ag3717
ag3718
ag3719
ag3720
ag3721
asg22
Nsg3708
g0
(g44
g2
Ntp4087
Rp4088
(dp4089
g21
I00
sg48
I01
sg23
I00
sg49
F13.33
sbsg3709
g0
(g44
g2
Ntp4090
Rp4091
(dp4092
g21
I00
sg48
I01
sg23
I00
sg49
F3.33
sbsg3710
g0
(g3657
g193
(lp4093
F0.14
aF0.135
atp4094
Rp4095
(dp4096
g21
I00
sg48
I01
sg23
I00
sbsg3711
g0
(g3657
g193
(lp4097
F0.0
aF0.0
atp4098
Rp4099
(dp4100
g21
I00
sg48
I01
sg23
I00
sbsg3712
g0
(g1764
g2
Ntp4101
Rp4102
(dp4103
g21
I00
sg48
I01
sg23
I00
sg49
I-9999
sbsg3713
g0
(g1764
g2
Ntp4104
Rp4105
(dp4106
g21
I00
sg48
I01
sg23
I00
sg49
I1
sbsg3714
g0
(g3657
g193
(lp4107
F0.0697
aF-0.7405
aF12.38
aF-671.9
atp4108
Rp4109
(dp4110
g21
I00
sg48
I01
sg23
I00
sbsg3715
g0
(g3657
g193
(lp4111
F0.297
aF0.298
aF0.298
aF0.313
atp4112
Rp4113
(dp4114
g21
I00
sg48
I01
sg23
I00
sbsg3716
g0
(g1764
g2
Ntp4115
Rp4116
(dp4117
g21
I00
sg48
I01
sg23
I00
sg49
I301
sbsg3717
g0
(g1764
g2
Ntp4118
Rp4119
(dp4120
g21
I00
sg48
I01
sg23
I00
sg49
I301
sbsg3718
g0
(g44
g2
Ntp4121
Rp4122
(dp4123
g21
I00
sg48
I01
sg23
I00
sg49
F0.0
sbsg3719
g0
(g3657
g193
(lp4124
F0.0
atp4125
Rp4126
(dp4127
g21
I00
sg48
I01
sg23
I00
sbsg3720
g0
(g3657
g193
(lp4128
F0.0
atp4129
Rp4130
(dp4131
g21
I00
sg48
I01
sg23
I00
sbsg3721
g0
(g50
g2
Ntp4132
Rp4133
(dp4134
g21
I00
sg48
I01
sg23
I00
sg49
I00
sbsbsg3617
g0
(g3371
g193
(lp4135
g0
(g79
g2
Ntp4136
Rp4137
(dp4138
g21
I00
sg48
I01
sg23
I00
sg19
(lp4139
Vpixels
p4140
aVcrosstalk
p4141
aVnonlin1
p4142
aVnonlin2
p4143
aVnonlin3
p4144
asg22
Nsg4140
g0
(g1764
g2
Ntp4145
Rp4146
(dp4147
g21
I00
sg48
I01
sg23
I00
sg49
I36000
sbsg4141
g0
(g44
g2
Ntp4148
Rp4149
(dp4150
g21
I00
sg48
I01
sg23
I00
sg49
F0.0
sbsg4142
g0
(g44
g2
Ntp4151
Rp4152
(dp4153
g21
I00
sg48
I01
sg23
I00
sg49
F1.0
sbsg4143
g0
(g44
g2
Ntp4154
Rp4155
(dp4156
g21
I00
sg48
I01
sg23
I00
sg49
F0.0
sbsg4144
g0
(g44
g2
Ntp4157
Rp4158
(dp4159
g21
I00
sg48
I01
sg23
I00
sg49
F0.0
sbsbag0
(g79
g2
Ntp4160
Rp4161
(dp4162
g21
I00
sg48
I01
sg23
I00
sg19
(lp4163
g4140
ag4141
ag4142
ag4143
ag4144
asg22
Nsg4140
g0
(g1764
g2
Ntp4164
Rp4165
(dp4166
g21
I00
sg48
I01
sg23
I00
sg49
I2500
sbsg4141
g0
(g44
g2
Ntp4167
Rp4168
(dp4169
g21
I00
sg48
I01
sg23
I00
sg49
F0.0
sbsg4142
g0
(g44
g2
Ntp4170
Rp4171
(dp4172
g21
I00
sg48
I01
sg23
I00
sg49
F1.0
sbsg4143
g0
(g44
g2
Ntp4173
Rp4174
(dp4175
g21
I00
sg48
I01
sg23
I00
sg49
F0.0
sbsg4144
g0
(g44
g2
Ntp4176
Rp4177
(dp4178
g21
I00
sg48
I01
sg23
I00
sg49
F0.0
sbsbag0
(g79
g2
Ntp4179
Rp4180
(dp4181
g21
I00
sg48
I01
sg23
I00
sg19
(lp4182
g4140
ag4141
ag4142
ag4143
ag4144
asg22
Nsg4140
g0
(g1764
g2
Ntp4183
Rp4184
(dp4185
g21
I00
sg48
I01
sg23
I00
sg49
I27370
sbsg4141
g0
(g44
g2
Ntp4186
Rp4187
(dp4188
g21
I00
sg48
I01
sg23
I00
sg49
F0.17
sbsg4142
g0
(g44
g2
Ntp4189
Rp4190
(dp4191
g21
I00
sg48
I01
sg23
I00
sg49
F1.00985
sbsg4143
g0
(g44
g2
Ntp4192
Rp4193
(dp4194
g21
I00
sg48
I01
sg23
I00
sg49
F7.84089e-06
sbsg4144
g0
(g44
g2
Ntp4195
Rp4196
(dp4197
g21
I00
sg48
I01
sg23
I00
sg49
F2.86282e-10
sbsbag0
(g79
g2
Ntp4198
Rp4199
(dp4200
g21
I00
sg48
I01
sg23
I00
sg19
(lp4201
g4140
ag4141
ag4142
ag4143
ag4144
asg22
Nsg4140
g0
(g1764
g2
Ntp4202
Rp4203
(dp4204
g21
I00
sg48
I01
sg23
I00
sg49
I38018
sbsg4141
g0
(g44
g2
Ntp4205
Rp4206
(dp4207
g21
I00
sg48
I01
sg23
I00
sg49
F0.196
sbsg4142
g0
(g44
g2
Ntp4208
Rp4209
(dp4210
g21
I00
sg48
I01
sg23
I00
sg49
F1.00546
sbsg4143
g0
(g44
g2
Ntp4211
Rp4212
(dp4213
g21
I00
sg48
I01
sg23
I00
sg49
F6.40239e-06
sbsg4144
g0
(g44
g2
Ntp4214
Rp4215
(dp4216
g21
I00
sg48
I01
sg23
I00
sg49
F1.27011e-10
sbsbag0
(g79
g2
Ntp4217
Rp4218
(dp4219
g21
I00
sg48
I01
sg23
I00
sg19
(lp4220
g4140
ag4141
ag4142
ag4143
ag4144
asg22
Nsg4140
g0
(g1764
g2
Ntp4221
Rp4222
(dp4223
g21
I00
sg48
I01
sg23
I00
sg49
I27370
sbsg4141
g0
(g44
g2
Ntp4224
Rp4225
(dp4226
g21
I00
sg48
I01
sg23
I00
sg49
F0.17
sbsg4142
g0
(g44
g2
Ntp4227
Rp4228
(dp4229
g21
I00
sg48
I01
sg23
I00
sg49
F1.00985
sbsg4143
g0
(g44
g2
Ntp4230
Rp4231
(dp4232
g21
I00
sg48
I01
sg23
I00
sg49
F7.84089e-06
sbsg4144
g0
(g44
g2
Ntp4233
Rp4234
(dp4235
g21
I00
sg48
I01
sg23
I00
sg49
F2.86282e-10
sbsbag0
(g79
g2
Ntp4236
Rp4237
(dp4238
g21
I00
sg48
I01
sg23
I00
sg19
(lp4239
g4140
ag4141
ag4142
ag4143
ag4144
asg22
Nsg4140
g0
(g1764
g2
Ntp4240
Rp4241
(dp4242
g21
I00
sg48
I01
sg23
I00
sg49
I38018
sbsg4141
g0
(g44
g2
Ntp4243
Rp4244
(dp4245
g21
I00
sg48
I01
sg23
I00
sg49
F0.196
sbsg4142
g0
(g44
g2
Ntp4246
Rp4247
(dp4248
g21
I00
sg48
I01
sg23
I00
sg49
F1.00546
sbsg4143
g0
(g44
g2
Ntp4249
Rp4250
(dp4251
g21
I00
sg48
I01
sg23
I00
sg49
F6.40239e-06
sbsg4144
g0
(g44
g2
Ntp4252
Rp4253
(dp4254
g21
I00
sg48
I01
sg23
I00
sg49
F1.27011e-10
sbsbag0
(g79
g2
Ntp4255
Rp4256
(dp4257
g21
I00
sg48
I01
sg23
I00
sg19
(lp4258
g4140
ag4141
ag4142
ag4143
ag4144
asg22
Nsg4140
g0
(g1764
g2
Ntp4259
Rp4260
(dp4261
g21
I00
sg48
I01
sg23
I00
sg49
I0
sbsg4141
g0
(g44
g2
Ntp4262
Rp4263
(dp4264
g21
I00
sg48
I01
sg23
I00
sg49
F0.0
sbsg4142
g0
(g44
g2
Ntp4265
Rp4266
(dp4267
g21
I00
sg48
I01
sg23
I00
sg49
F1.0
sbsg4143
g0
(g44
g2
Ntp4268
Rp4269
(dp4270
g21
I00
sg48
I01
sg23
I00
sg49
F0.0
sbsg4144
g0
(g44
g2
Ntp4271
Rp4272
(dp4273
g21
I00
sg48
I01
sg23
I00
sg49
F0.0
sbsbatp4274
Rp4275
(dp4276
g21
I00
sg48
I01
sg23
I00
sg223
I1
sbsg24
V/cvmfs/cms.cern.ch/slc7_amd64_gcc10/cms/cmssw/CMSSW_12_4_9/python/CalibCalorimetry/HcalPlugins/Hcal_Conditions_forGlobalTag_cff.py
p4277
sg26
I16
sg27
g3585
sbssV_Process__esproducers
p4278
(dp4279
VCSCGeometryESModule
p4280
g0
(cFWCore.ParameterSet.Modules
ESProducer
p4281
g2
Ntp4282
Rp4283
(dp4284
g17
g4280
sg19
(lp4285
VfromDDD
p4286
aVfromDD4hep
p4287
aValignmentsLabel
p4288
ag3294
aVuseRealWireGeometry
p4289
aVuseOnlyWiresInME1a
p4290
aVuseGangedStripsInME1a
p4291
aVuseCentreTIOffsets
p4292
aVapplyAlignment
p4293
aVdebugV
p4294
asg21
I00
sg22
Nsg4286
g0
(g50
g2
Ntp4295
Rp4296
(dp4297
g21
I00
sg48
I01
sg23
I00
sg49
I00
sbsg23
I01
sg4287
g0
(g50
g2
Ntp4298
Rp4299
(dp4300
g21
I00
sg48
I01
sg23
I00
sg49
I00
sbsg4288
g0
(g54
g2
Ntp4301
Rp4302
(dp4303
g21
I00
sg48
I01
sg23
I00
sg49
g66
sbsg3294
g0
(g54
g2
Ntp4304
Rp4305
(dp4306
g21
I00
sg48
I01
sg23
I00
sg49
g66
sbsg4289
g0
(g50
g2
Ntp4307
Rp4308
(dp4309
g21
I00
sg48
I01
sg23
I00
sg49
I01
sbsg4290
g0
(g50
g2
Ntp4310
Rp4311
(dp4312
g21
I00
sg48
I01
sg23
I00
sg49
I00
sbsg4291
g0
(g50
g2
Ntp4313
Rp4314
(dp4315
g21
I00
sg48
I01
sg23
I01
sg49
I00
sbsg4292
g0
(g50
g2
Ntp4316
Rp4317
(dp4318
g21
I00
sg48
I01
sg23
I00
sg49
I00
sbsg4293
g0
(g50
g2
Ntp4319
Rp4320
(dp4321
g21
I00
sg48
I01
sg23
I00
sg49
I01
sbsg4294
g0
(g50
g2
Ntp4322
Rp4323
(dp4324
g21
I00
sg48
I00
sg23
I00
sg49
I00
sbsg24
g512
sg26
I55
sg27
g4280
sbsVCaloGeometryBuilder
p4325
g0
(g4281
g2
Ntp4326
Rp4327
(dp4328
g17
g4325
sg19
(lp4329
VSelectedCalos
p4330
asg21
I00
sg22
Nsg4330
g0
(g192
g193
(lp4331
VHCAL
p4332
aVZDC
p4333
aVEcalBarrel
p4334
aVEcalEndcap
p4335
aVEcalPreshower
p4336
aVTOWER
p4337
atp4338
Rp4339
(dp4340
g21
I00
sg48
I01
sg23
I01
sg223
I1
sbsg23
I01
sg24
g512
sg26
I55
sg27
g4325
sbsVCaloTopologyBuilder
p4341
g0
(g4281
g2
Ntp4342
Rp4343
(dp4344
g17
g4341
sg19
(lp4345
sg21
I00
sg22
Nsg23
I00
sg24
g512
sg26
I55
sg27
g4341
sbsVCaloTowerGeometryFromDBEP
p4346
g0
(g4281
g2
Ntp4347
Rp4348
(dp4349
g17
g4346
sg19
(lp4350
g4293
asg21
I00
sg22
Nsg4293
g0
(g50
g2
Ntp4351
Rp4352
(dp4353
g21
I00
sg48
I01
sg23
I00
sg49
I00
sbsg23
I00
sg24
g512
sg26
I55
sg27
g4346
sbsVCaloTowerTopologyEP
p4354
g0
(g4281
g2
Ntp4355
Rp4356
(dp4357
g17
g4354
sg19
(lp4358
sg21
I00
sg22
Nsg23
I00
sg24
g512
sg26
I55
sg27
g4354
sbsVCastorGeometryFromDBEP
p4359
g0
(g4281
g2
Ntp4360
Rp4361
(dp4362
g17
g4359
sg19
(lp4363
g4293
asg21
I00
sg22
Nsg4293
g0
(g50
g2
Ntp4364
Rp4365
(dp4366
g21
I00
sg48
I01
sg23
I00
sg49
I00
sbsg23
I00
sg24
g512
sg26
I55
sg27
g4359
sbsVDTGeometryESModule
p4367
g0
(g4281
g2
Ntp4368
Rp4369
(dp4370
g17
g4367
sg19
(lp4371
g4286
ag4287
aVDDDetector
p4372
ag4288
ag3294
aVattribute
p4373
aVvalue
p4374
ag4293
asg21
I00
sg22
Nsg4286
g0
(g50
g2
Ntp4375
Rp4376
(dp4377
g21
I00
sg48
I01
sg23
I01
sg49
I00
sbsg23
I01
sg4287
g0
(g50
g2
Ntp4378
Rp4379
(dp4380
g21
I00
sg48
I01
sg23
I00
sg49
I00
sbsg4372
g0
(g122
g2
Ntp4381
Rp4382
(dp4383
g21
I00
sg48
I01
sg23
I00
sg126
g66
sg127
g66
sbsg4288
g0
(g54
g2
Ntp4384
Rp4385
(dp4386
g21
I00
sg48
I01
sg23
I00
sg49
g66
sbsg3294
g0
(g54
g2
Ntp4387
Rp4388
(dp4389
g21
I00
sg48
I01
sg23
I00
sg49
g66
sbsg4373
g0
(g54
g2
Ntp4390
Rp4391
(dp4392
g21
I00
sg48
I01
sg23
I00
sg49
VMuStructure
p4393
sbsg4374
g0
(g54
g2
Ntp4394
Rp4395
(dp4396
g21
I00
sg48
I01
sg23
I00
sg49
VMuonBarrelDT
p4397
sbsg4293
g0
(g50
g2
Ntp4398
Rp4399
(dp4400
g21
I00
sg48
I01
sg23
I00
sg49
I01
sbsg24
g512
sg26
I55
sg27
g4367
sbsVEcalBarrelGeometryFromDBEP
p4401
g0
(g4281
g2
Ntp4402
Rp4403
(dp4404
g17
g4401
sg19
(lp4405
g4293
asg21
I00
sg22
Nsg4293
g0
(g50
g2
Ntp4406
Rp4407
(dp4408
g21
I00
sg48
I01
sg23
I01
sg49
I01
sbsg23
I01
sg24
g512
sg26
I55
sg27
g4401
sbsVEcalElectronicsMappingBuilder
p4409
g0
(g4281
g2
Ntp4410
Rp4411
(dp4412
g17
g4409
sg19
(lp4413
sg21
I00
sg22
Nsg23
I00
sg24
g512
sg26
I55
sg27
g4409
sbsVEcalEndcapGeometryFromDBEP
p4414
g0
(g4281
g2
Ntp4415
Rp4416
(dp4417
g17
g4414
sg19
(lp4418
g4293
asg21
I00
sg22
Nsg4293
g0
(g50
g2
Ntp4419
Rp4420
(dp4421
g21
I00
sg48
I01
sg23
I01
sg49
I01
sbsg23
I01
sg24
g512
sg26
I55
sg27
g4414
sbsVEcalPreshowerGeometryFromDBEP
p4422
g0
(g4281
g2
Ntp4423
Rp4424
(dp4425
g17
g4422
sg19
(lp4426
g4293
asg21
I00
sg22
Nsg4293
g0
(g50
g2
Ntp4427
Rp4428
(dp4429
g21
I00
sg48
I01
sg23
I01
sg49
I01
sbsg23
I01
sg24
g512
sg26
I55
sg27
g4422
sbsVEcalTrigTowerConstituentsMapBuilder
p4430
g0
(g4281
g2
Ntp4431
Rp4432
(dp4433
g17
g4430
sg19
(lp4434
VMapFile
p4435
asg21
I00
sg22
Nsg4435
g0
(g54
g2
Ntp4436
Rp4437
(dp4438
g21
I00
sg48
I00
sg23
I00
sg49
VGeometry/EcalMapping/data/EndCap_TTMap.txt
p4439
sbsg23
I00
sg24
g512
sg26
I55
sg27
g4430
sbsVGlobalTrackingGeometryESProducer
p4440
g0
(g4281
g2
Ntp4441
Rp4442
(dp4443
g17
g4440
sg19
(lp4444
sg21
I00
sg22
Nsg23
I00
sg24
g512
sg26
I55
sg27
g4440
sbsVHcalAlignmentEP
p4445
g0
(g4281
g2
Ntp4446
Rp4447
(dp4448
g17
g4445
sg19
(lp4449
sg21
I00
sg22
Nsg23
I00
sg24
g512
sg26
I55
sg27
g4445
sbsVHcalGeometryFromDBEP
p4450
g0
(g4281
g2
Ntp4451
Rp4452
(dp4453
g17
g4450
sg19
(lp4454
g4293
asg21
I00
sg22
Nsg4293
g0
(g50
g2
Ntp4455
Rp4456
(dp4457
g21
I00
sg48
I01
sg23
I01
sg49
I01
sbsg23
I01
sg24
g512
sg26
I55
sg27
g4450
sbsVMuonDetLayerGeometryESProducer
p4458
g0
(g4281
g2
Ntp4459
Rp4460
(dp4461
g17
g4458
sg19
(lp4462
sg21
I00
sg22
Nsg23
I00
sg24
g512
sg26
I55
sg27
g4458
sbsVRPCGeometryESModule
p4463
g0
(g4281
g2
Ntp4464
Rp4465
(dp4466
g17
g4463
sg19
(lp4467
g4286
ag4287
asg21
I00
sg22
Nsg4286
g0
(g50
g2
Ntp4468
Rp4469
(dp4470
g21
I00
sg48
I00
sg23
I00
sg49
I00
sbsg23
I00
sg4287
g0
(g50
g2
Ntp4471
Rp4472
(dp4473
g21
I00
sg48
I00
sg23
I00
sg49
I00
sbsg24
g512
sg26
I55
sg27
g4463
sbsVTrackerAdditionalParametersPerDet
p4474
g0
(g4281
g2
Ntp4475
Rp4476
(dp4477
g17
VTrackerAdditionalParametersPerDetESModule
p4478
sg19
(lp4479
g3294
asg21
I00
sg22
Nsg3294
g0
(g54
g2
Ntp4480
Rp4481
(dp4482
g21
I00
sg48
I01
sg23
I00
sg49
g66
sbsg23
I00
sg24
g512
sg26
I55
sg27
g4474
sbsVTrackerRecoGeometryESProducer
p4483
g0
(g4281
g2
Ntp4484
Rp4485
(dp4486
g17
g4483
sg19
(lp4487
VusePhase2Stacks
p4488
asg21
I00
sg22
Nsg4488
g0
(g50
g2
Ntp4489
Rp4490
(dp4491
g21
I00
sg48
I01
sg23
I00
sg49
I00
sbsg23
I00
sg24
g512
sg26
I55
sg27
g4483
sbsVZdcGeometryFromDBEP
p4492
g0
(g4281
g2
Ntp4493
Rp4494
(dp4495
g17
g4492
sg19
(lp4496
g4293
asg21
I00
sg22
Nsg4293
g0
(g50
g2
Ntp4497
Rp4498
(dp4499
g21
I00
sg48
I01
sg23
I00
sg49
I00
sbsg23
I00
sg24
g512
sg26
I55
sg27
g4492
sbsVfakeForIdealAlignment
p4500
g0
(g4281
g2
Ntp4501
Rp4502
(dp4503
g17
VFakeAlignmentProducer
p4504
sg19
(lp4505
g3294
asg21
I00
sg22
Nsg3294
g0
(g54
g2
Ntp4506
Rp4507
(dp4508
g21
I00
sg48
I01
sg23
I01
sg49
VfakeForIdeal
p4509
sbsg23
I01
sg24
V/cvmfs/cms.cern.ch/slc7_amd64_gcc10/cms/cmssw/CMSSW_12_4_9/python/Alignment/CommonAlignmentProducer/fakeForIdealAlignmentProducer_cfi.py
p4510
sg26
I5
sg27
g4500
sbsVhcalDDDRecConstants
p4511
g0
(g4281
g2
Ntp4512
Rp4513
(dp4514
g17
VHcalDDDRecConstantsESModule
p4515
sg19
(lp4516
g3294
asg21
I00
sg22
Nsg3294
g0
(g54
g2
Ntp4517
Rp4518
(dp4519
g21
I00
sg48
I01
sg23
I00
sg49
g66
sbsg23
I00
sg24
g512
sg26
I55
sg27
g4511
sbsVhcalDDDSimConstants
p4520
g0
(g4281
g2
Ntp4521
Rp4522
(dp4523
g17
VHcalDDDSimConstantsESModule
p4524
sg19
(lp4525
g3294
asg21
I00
sg22
Nsg3294
g0
(g54
g2
Ntp4526
Rp4527
(dp4528
g21
I00
sg48
I01
sg23
I00
sg49
g66
sbsg23
I00
sg24
g512
sg26
I55
sg27
g4520
sbsVhcalTopologyIdeal
p4529
g0
(g4281
g2
Ntp4530
Rp4531
(dp4532
g17
VHcalTopologyIdealEP
p4533
sg19
(lp4534
VExclude
p4535
aVMergePosition
p4536
ag3294
asg21
I00
sg22
Nsg4535
g0
(g54
g2
Ntp4537
Rp4538
(dp4539
g21
I00
sg48
I00
sg23
I00
sg49
g66
sbsg23
I00
sg4536
g0
(g50
g2
Ntp4540
Rp4541
(dp4542
g21
I00
sg48
I00
sg23
I00
sg49
I00
sbsg3294
g0
(g54
g2
Ntp4543
Rp4544
(dp4545
g21
I00
sg48
I01
sg23
I00
sg49
g66
sbsg24
g512
sg26
I55
sg27
g4529
sbsVidealForDigiCSCGeometry
p4546
g0
(g4281
g2
Ntp4547
Rp4548
(dp4549
g17
g4280
sg19
(lp4550
g4286
ag4287
ag4288
ag3294
ag4289
ag4290
ag4291
ag4292
ag4293
ag4294
asg21
I00
sg22
Nsg4286
g0
(g50
g2
Ntp4551
Rp4552
(dp4553
g21
I00
sg48
I01
sg23
I00
sg49
I00
sbsg23
I01
sg4287
g0
(g50
g2
Ntp4554
Rp4555
(dp4556
g21
I00
sg48
I01
sg23
I00
sg49
I00
sbsg4288
g0
(g54
g2
Ntp4557
Rp4558
(dp4559
g21
I00
sg48
I01
sg23
I01
sg49
g4509
sbsg3294
g0
(g54
g2
Ntp4560
Rp4561
(dp4562
g21
I00
sg48
I01
sg23
I01
sg49
VidealForDigi
p4563
sbsg4289
g0
(g50
g2
Ntp4564
Rp4565
(dp4566
g21
I00
sg48
I01
sg23
I00
sg49
I01
sbsg4290
g0
(g50
g2
Ntp4567
Rp4568
(dp4569
g21
I00
sg48
I01
sg23
I00
sg49
I00
sbsg4291
g0
(g50
g2
Ntp4570
Rp4571
(dp4572
g21
I00
sg48
I01
sg23
I01
sg49
I00
sbsg4292
g0
(g50
g2
Ntp4573
Rp4574
(dp4575
g21
I00
sg48
I01
sg23
I00
sg49
I00
sbsg4293
g0
(g50
g2
Ntp4576
Rp4577
(dp4578
g21
I00
sg48
I01
sg23
I01
sg49
I00
sbsg4294
g0
(g50
g2
Ntp4579
Rp4580
(dp4581
g21
I00
sg48
I00
sg23
I00
sg49
I00
sbsg24
V/cvmfs/cms.cern.ch/slc7_amd64_gcc10/cms/cmssw/CMSSW_12_4_9/python/Geometry/CSCGeometryBuilder/idealForDigiCscGeometryDB_cff.py
p4582
sg26
I8
sg27
g4546
sbsVidealForDigiDTGeometry
p4583
g0
(g4281
g2
Ntp4584
Rp4585
(dp4586
g17
g4367
sg19
(lp4587
g4286
ag4287
ag4372
ag4288
ag3294
ag4373
ag4374
ag4293
asg21
I00
sg22
Nsg4286
g0
(g50
g2
Ntp4588
Rp4589
(dp4590
g21
I00
sg48
I01
sg23
I01
sg49
I00
sbsg23
I01
sg4287
g0
(g50
g2
Ntp4591
Rp4592
(dp4593
g21
I00
sg48
I01
sg23
I00
sg49
I00
sbsg4372
g0
(g122
g2
Ntp4594
Rp4595
(dp4596
g21
I00
sg48
I01
sg23
I00
sg126
g66
sg127
g66
sbsg4288
g0
(g54
g2
Ntp4597
Rp4598
(dp4599
g21
I00
sg48
I01
sg23
I01
sg49
g4509
sbsg3294
g0
(g54
g2
Ntp4600
Rp4601
(dp4602
g21
I00
sg48
I01
sg23
I01
sg49
g4563
sbsg4373
g0
(g54
g2
Ntp4603
Rp4604
(dp4605
g21
I00
sg48
I01
sg23
I00
sg49
g4393
sbsg4374
g0
(g54
g2
Ntp4606
Rp4607
(dp4608
g21
I00
sg48
I01
sg23
I00
sg49
g4397
sbsg4293
g0
(g50
g2
Ntp4609
Rp4610
(dp4611
g21
I00
sg48
I01
sg23
I01
sg49
I00
sbsg24
V/cvmfs/cms.cern.ch/slc7_amd64_gcc10/cms/cmssw/CMSSW_12_4_9/python/Geometry/DTGeometryBuilder/idealForDigiDtGeometryDB_cff.py
p4612
sg26
I8
sg27
g4583
sbsVidealForDigiTrackerGeometry
p4613
g0
(g4281
g2
Ntp4614
Rp4615
(dp4616
g17
VTrackerDigiGeometryESModule
p4617
sg19
(lp4618
g3294
ag4286
ag4293
ag4288
asg21
I00
sg22
Nsg3294
g0
(g54
g2
Ntp4619
Rp4620
(dp4621
g21
I00
sg48
I01
sg23
I01
sg49
g4563
sbsg23
I01
sg4286
g0
(g50
g2
Ntp4622
Rp4623
(dp4624
g21
I00
sg48
I01
sg23
I00
sg49
I00
sbsg4293
g0
(g50
g2
Ntp4625
Rp4626
(dp4627
g21
I00
sg48
I01
sg23
I01
sg49
I00
sbsg4288
g0
(g54
g2
Ntp4628
Rp4629
(dp4630
g21
I00
sg48
I01
sg23
I01
sg49
g4509
sbsg24
V/cvmfs/cms.cern.ch/slc7_amd64_gcc10/cms/cmssw/CMSSW_12_4_9/python/Geometry/TrackerGeometryBuilder/idealForDigiTrackerGeometryDB_cff.py
p4631
sg26
I8
sg27
g4613
sbsVmuonGeometryConstants
p4632
g0
(g4281
g2
Ntp4633
Rp4634
(dp4635
g17
VMuonGeometryConstantsESModule
p4636
sg19
(lp4637
g4287
ag3294
asg21
I00
sg22
Nsg4287
g0
(g50
g2
Ntp4638
Rp4639
(dp4640
g21
I00
sg48
I01
sg23
I00
sg49
I01
sbsg23
I01
sg3294
g0
(g54
g2
Ntp4641
Rp4642
(dp4643
g21
I00
sg48
I01
sg23
I00
sg49
g66
sbsg24
g512
sg26
I55
sg27
g4632
sbsVtrackerGeometryDB
p4644
g0
(g4281
g2
Ntp4645
Rp4646
(dp4647
g17
g4617
sg19
(lp4648
g3294
ag4286
ag4293
ag4288
asg21
I00
sg22
Nsg3294
g0
(g54
g2
Ntp4649
Rp4650
(dp4651
g21
I00
sg48
I01
sg23
I00
sg49
g66
sbsg23
I00
sg4286
g0
(g50
g2
Ntp4652
Rp4653
(dp4654
g21
I00
sg48
I01
sg23
I00
sg49
I00
sbsg4293
g0
(g50
g2
Ntp4655
Rp4656
(dp4657
g21
I00
sg48
I01
sg23
I00
sg49
I01
sbsg4288
g0
(g54
g2
Ntp4658
Rp4659
(dp4660
g21
I00
sg48
I01
sg23
I00
sg49
g66
sbsg24
g512
sg26
I55
sg27
g4644
sbsVtrackerNumberingGeometryDB
p4661
g0
(g4281
g2
Ntp4662
Rp4663
(dp4664
g17
VTrackerGeometricDetESModule
p4665
sg19
(lp4666
g4286
ag4287
ag3294
asg21
I00
sg22
Nsg4286
g0
(g50
g2
Ntp4667
Rp4668
(dp4669
g21
I00
sg48
I01
sg23
I00
sg49
I00
sbsg23
I00
sg4287
g0
(g50
g2
Ntp4670
Rp4671
(dp4672
g21
I00
sg48
I01
sg23
I00
sg49
I00
sbsg3294
g0
(g54
g2
Ntp4673
Rp4674
(dp4675
g21
I00
sg48
I01
sg23
I00
sg49
g66
sbsg24
g512
sg26
I55
sg27
g4661
sbsVtrackerTopology
p4676
g0
(g4281
g2
Ntp4677
Rp4678
(dp4679
g17
VTrackerTopologyEP
p4680
sg19
(lp4681
g3294
asg21
I00
sg22
Nsg3294
g0
(g54
g2
Ntp4682
Rp4683
(dp4684
g21
I00
sg48
I01
sg23
I00
sg49
g66
sbsg23
I00
sg24
g512
sg26
I55
sg27
g4676
sbsVGEMGeometryESModule
p4685
g0
(g4281
g2
Ntp4686
Rp4687
(dp4688
g17
g4685
sg19
(lp4689
g4286
ag4287
ag3294
ag4288
ag4293
asg21
I00
sg22
Nsg4286
g0
(g50
g2
Ntp4690
Rp4691
(dp4692
g21
I00
sg48
I01
sg23
I00
sg49
I00
sbsg23
I01
sg4287
g0
(g50
g2
Ntp4693
Rp4694
(dp4695
g21
I00
sg48
I01
sg23
I00
sg49
I00
sbsg3294
g0
(g54
g2
Ntp4696
Rp4697
(dp4698
g21
I00
sg48
I01
sg23
I00
sg49
g66
sbsg4288
g0
(g54
g2
Ntp4699
Rp4700
(dp4701
g21
I00
sg48
I01
sg23
I00
sg49
g66
sbsg4293
g0
(g50
g2
Ntp4702
Rp4703
(dp4704
g21
I00
sg48
I01
sg23
I01
sg49
I01
sbsg24
g512
sg26
I55
sg27
g4685
sbsVDDCompactViewESProducer
p4705
g0
(g4281
g2
Ntp4706
Rp4707
(dp4708
g17
g4705
sg19
(lp4709
g3294
asg21
I00
sg22
Nsg3294
g0
(g54
g2
Ntp4710
Rp4711
(dp4712
g21
I00
sg48
I01
sg23
I00
sg49
g66
sbsg23
I00
sg24
g512
sg26
I55
sg27
g4705
sbsVDDSpecParRegistryESProducer
p4713
g0
(g4281
g2
Ntp4714
Rp4715
(dp4716
g17
g4713
sg19
(lp4717
g3294
asg21
I00
sg22
Nsg3294
g0
(g54
g2
Ntp4718
Rp4719
(dp4720
g21
I00
sg48
I01
sg23
I00
sg49
g66
sbsg23
I00
sg24
g512
sg26
I55
sg27
g4713
sbsVDDVectorRegistryESProducer
p4721
g0
(g4281
g2
Ntp4722
Rp4723
(dp4724
g17
g4721
sg19
(lp4725
g3294
asg21
I00
sg22
Nsg3294
g0
(g54
g2
Ntp4726
Rp4727
(dp4728
g21
I00
sg48
I01
sg23
I00
sg49
g66
sbsg23
I00
sg24
g512
sg26
I55
sg27
g4721
sbsVcaloSimulationParameters
p4729
g0
(g4281
g2
Ntp4730
Rp4731
(dp4732
g17
VCaloSimParametersESModule
p4733
sg19
(lp4734
g4287
ag3294
asg21
I00
sg22
Nsg4287
g0
(g50
g2
Ntp4735
Rp4736
(dp4737
g21
I00
sg48
I01
sg23
I00
sg49
I01
sbsg23
I01
sg3294
g0
(g54
g2
Ntp4738
Rp4739
(dp4740
g21
I00
sg48
I01
sg23
I00
sg49
g66
sbsg24
g512
sg26
I55
sg27
g4729
sbsVecalSimulationParametersEB
p4741
g0
(g4281
g2
Ntp4742
Rp4743
(dp4744
g17
VEcalSimParametersESModule
p4745
sg19
(lp4746
g4287
aVname
p4747
ag3294
asg21
I00
sg22
Nsg4287
g0
(g50
g2
Ntp4748
Rp4749
(dp4750
g21
I00
sg48
I01
sg23
I00
sg49
I01
sbsg23
I01
sg4747
g0
(g54
g2
Ntp4751
Rp4752
(dp4753
g21
I00
sg48
I01
sg23
I00
sg49
VEcalHitsEB
p4754
sbsg3294
g0
(g54
g2
Ntp4755
Rp4756
(dp4757
g21
I00
sg48
I01
sg23
I00
sg49
g66
sbsg24
g512
sg26
I55
sg27
g4741
sbsVecalSimulationParametersEE
p4758
g0
(g4281
g2
Ntp4759
Rp4760
(dp4761
g17
g4745
sg19
(lp4762
g4287
ag4747
ag3294
asg21
I00
sg22
Nsg4287
g0
(g50
g2
Ntp4763
Rp4764
(dp4765
g21
I00
sg48
I01
sg23
I00
sg49
I01
sbsg23
I00
sg4747
g0
(g54
g2
Ntp4766
Rp4767
(dp4768
g21
I00
sg48
I01
sg23
I00
sg49
VEcalHitsEE
p4769
sbsg3294
g0
(g54
g2
Ntp4770
Rp4771
(dp4772
g21
I00
sg48
I01
sg23
I00
sg49
g66
sbsg24
V/cvmfs/cms.cern.ch/slc7_amd64_gcc10/cms/cmssw/CMSSW_12_4_9/python/Geometry/EcalCommonData/ecalSimulationParameters_cff.py
p4773
sg26
I11
sg27
g4758
sbsVecalSimulationParametersES
p4774
g0
(g4281
g2
Ntp4775
Rp4776
(dp4777
g17
g4745
sg19
(lp4778
g4287
ag4747
ag3294
asg21
I00
sg22
Nsg4287
g0
(g50
g2
Ntp4779
Rp4780
(dp4781
g21
I00
sg48
I01
sg23
I00
sg49
I01
sbsg23
I00
sg4747
g0
(g54
g2
Ntp4782
Rp4783
(dp4784
g21
I00
sg48
I01
sg23
I00
sg49
VEcalHitsES
p4785
sbsg3294
g0
(g54
g2
Ntp4786
Rp4787
(dp4788
g21
I00
sg48
I01
sg23
I00
sg49
g66
sbsg24
g4773
sg26
I14
sg27
g4774
sbsVhcalSimulationConstants
p4789
g0
(g4281
g2
Ntp4790
Rp4791
(dp4792
g17
VHcalSimulationConstantsESModule
p4793
sg19
(lp4794
g3294
asg21
I00
sg22
Nsg3294
g0
(g54
g2
Ntp4795
Rp4796
(dp4797
g21
I00
sg48
I01
sg23
I00
sg49
g66
sbsg23
I00
sg24
g512
sg26
I55
sg27
g4789
sbsVhcalSimulationParameters
p4798
g0
(g4281
g2
Ntp4799
Rp4800
(dp4801
g17
VHcalSimParametersESModule
p4802
sg19
(lp4803
g4287
ag3294
asg21
I00
sg22
Nsg4287
g0
(g50
g2
Ntp4804
Rp4805
(dp4806
g21
I00
sg48
I01
sg23
I00
sg49
I01
sbsg23
I01
sg3294
g0
(g54
g2
Ntp4807
Rp4808
(dp4809
g21
I00
sg48
I01
sg23
I00
sg49
g66
sbsg24
g512
sg26
I55
sg27
g4798
sbsVmuonOffsetESProducer
p4810
g0
(g4281
g2
Ntp4811
Rp4812
(dp4813
g17
VMuonOffsetESProducer
p4814
sg19
(lp4815
g4287
aVnames
p4816
ag3294
asg21
I00
sg22
Nsg4287
g0
(g50
g2
Ntp4817
Rp4818
(dp4819
g21
I00
sg48
I01
sg23
I00
sg49
I01
sbsg23
I01
sg4816
g0
(g192
g193
(lp4820
VMuonCommonNumbering
p4821
aVMuonBarrel
p4822
aVMuonEndcap
p4823
aVMuonBarrelWheels
p4824
aVMuonBarrelStation1
p4825
aVMuonBarrelStation2
p4826
aVMuonBarrelStation3
p4827
aVMuonBarrelStation4
p4828
aVMuonBarrelSuperLayer
p4829
aVMuonBarrelLayer
p4830
aVMuonBarrelWire
p4831
aVMuonRpcPlane1I
p4832
aVMuonRpcPlane1O
p4833
aVMuonRpcPlane2I
p4834
aVMuonRpcPlane2O
p4835
aVMuonRpcPlane3S
p4836
aVMuonRpcPlane4
p4837
aVMuonRpcChamberLeft
p4838
aVMuonRpcChamberMiddle
p4839
aVMuonRpcChamberRight
p4840
aVMuonRpcEndcap1
p4841
aVMuonRpcEndcap2
p4842
aVMuonRpcEndcap3
p4843
aVMuonRpcEndcap4
p4844
aVMuonRpcEndcapSector
p4845
aVMuonRpcEndcapChamberB1
p4846
aVMuonRpcEndcapChamberB2
p4847
aVMuonRpcEndcapChamberB3
p4848
aVMuonRpcEndcapChamberC1
p4849
aVMuonRpcEndcapChamberC2
p4850
aVMuonRpcEndcapChamberC3
p4851
aVMuonRpcEndcapChamberE1
p4852
aVMuonRpcEndcapChamberE2
p4853
aVMuonRpcEndcapChamberE3
p4854
aVMuonRpcEndcapChamberF1
p4855
aVMuonRpcEndcapChamberF2
p4856
aVMuonRpcEndcapChamberF3
p4857
aVMuonRpcEndcapChamberG1
p4858
aVMuonRpcEndcapChamberH1
p4859
aVMuonEndcapStation1
p4860
aVMuonEndcapStation2
p4861
aVMuonEndcapStation3
p4862
aVMuonEndcapStation4
p4863
aVMuonEndcapSubrings
p4864
aVMuonEndcapSectors
p4865
aVMuonEndcapLayers
p4866
aVMuonEndcapRing1
p4867
aVMuonEndcapRing2
p4868
aVMuonEndcapRing3
p4869
aVMuonEndcapRingA
p4870
aVMuonGEMEndcap
p4871
aVMuonGEMEndcap2
p4872
aVMuonGEMSector
p4873
aVMuonGEMChamber
p4874
atp4875
Rp4876
(dp4877
g21
I00
sg48
I01
sg23
I00
sg223
I1
sbsg3294
g0
(g54
g2
Ntp4878
Rp4879
(dp4880
g21
I00
sg48
I01
sg23
I00
sg49
g66
sbsg24
g512
sg26
I55
sg27
g4810
sbsVParabolicParametrizedMagneticFieldProducer
p4881
g0
(g4281
g2
Ntp4882
Rp4883
(dp4884
g17
VAutoParametrizedMagneticFieldProducer
p4885
sg19
(lp4886
Vversion
p4887
ag3292
aVvalueOverride
p4888
asg21
I00
sg22
Nsg4887
g0
(g54
g2
Ntp4889
Rp4890
(dp4891
g21
I00
sg48
I01
sg23
I00
sg49
VParabolic
p4892
sbsg23
I01
sg3292
g0
(g54
g2
Ntp4893
Rp4894
(dp4895
g21
I00
sg48
I00
sg23
I01
sg49
VParabolicMf
p4896
sbsg4888
g0
(g1764
g2
Ntp4897
Rp4898
(dp4899
g21
I00
sg48
I01
sg23
I01
sg49
I18268
sbsg24
g512
sg26
I55
sg27
g4881
sbsVVolumeBasedMagneticFieldESProducer
p4900
g0
(g4281
g2
Ntp4901
Rp4902
(dp4903
g17
VDD4hep_VolumeBasedMagneticFieldESProducerFromDB
p4904
sg19
(lp4905
g3292
aVdebugBuilder
p4906
ag4888
asg21
I00
sg22
Nsg23
I01
sg24
g512
sg26
I55
sg3292
g0
(g54
g2
Ntp4907
Rp4908
(dp4909
g21
I00
sg48
I00
sg23
I00
sg49
g66
sbsg4906
g0
(g50
g2
Ntp4910
Rp4911
(dp4912
g21
I00
sg48
I00
sg23
I00
sg49
I00
sbsg4888
g0
(g1764
g2
Ntp4913
Rp4914
(dp4915
g21
I00
sg48
I01
sg23
I01
sg49
I18268
sbsg27
g4900
sbsVCastorDbProducer
p4916
g0
(g4281
g2
Ntp4917
Rp4918
(dp4919
g17
g4916
sg19
(lp4920
g3294
asg21
I00
sg22
Nsg3294
g0
(g54
g2
Ntp4921
Rp4922
(dp4923
g21
I00
sg48
I01
sg23
I00
sg49
g66
sbsg23
I00
sg24
g512
sg26
I55
sg27
g4916
sbsVEcalLaserCorrectionService
p4924
g0
(g4281
g2
Ntp4925
Rp4926
(dp4927
g17
g4924
sg19
(lp4928
VmaxExtrapolationTimeInSec
p4929
asg21
I00
sg22
Nsg4929
g0
(g1674
g2
Ntp4930
Rp4931
(dp4932
g21
I00
sg48
I01
sg23
I00
sg49
I0
sbsg23
I00
sg24
g512
sg26
I55
sg27
g4924
sbsVEcalLaserCorrectionServiceMC
p4933
g0
(g4281
g2
Ntp4934
Rp4935
(dp4936
g17
g4933
sg19
(lp4937
g3294
asg21
I00
sg22
Nsg3294
g0
(g54
g2
Ntp4938
Rp4939
(dp4940
g21
I00
sg48
I01
sg23
I00
sg49
g66
sbsg23
I00
sg24
g512
sg26
I55
sg27
g4933
sbsVSiStripRecHitMatcherESProducer
p4941
g0
(g4281
g2
Ntp4942
Rp4943
(dp4944
g17
g4941
sg19
(lp4945
VComponentName
p4946
aVNSigmaInside
p4947
aVPreFilter
p4948
asg21
I00
sg22
Nsg4946
g0
(g54
g2
Ntp4949
Rp4950
(dp4951
g21
I00
sg48
I01
sg23
I00
sg49
VStandardMatcher
p4952
sbsg23
I00
sg4947
g0
(g44
g2
Ntp4953
Rp4954
(dp4955
g21
I00
sg48
I01
sg23
I00
sg49
F3.0
sbsg4948
g0
(g50
g2
Ntp4956
Rp4957
(dp4958
g21
I00
sg48
I01
sg23
I00
sg49
I00
sbsg24
g512
sg26
I55
sg27
g4941
sbsVStripCPEfromTrackAngleESProducer
p4959
g0
(g4281
g2
Ntp4960
Rp4961
(dp4962
g17
VStripCPEESProducer
p4963
sg19
(lp4964
g4946
aVComponentType
p4965
aVparameters
p4966
asg21
I00
sg22
Nsg4946
g0
(g54
g2
Ntp4967
Rp4968
(dp4969
g21
I00
sg48
I01
sg23
I01
sg49
VStripCPEfromTrackAngle
p4970
sbsg23
I00
sg4965
g0
(g54
g2
Ntp4971
Rp4972
(dp4973
g21
I00
sg48
I01
sg23
I01
sg49
g4970
sbsg4966
g0
(g79
g2
Ntp4974
Rp4975
(dp4976
g21
I00
sg48
I01
sg23
I00
sg19
(lp4977
VmLC_P0
p4978
aVmLC_P1
p4979
aVmLC_P2
p4980
aVmTIB_P0
p4981
aVmTIB_P1
p4982
aVmTOB_P0
p4983
aVmTOB_P1
p4984
aVmTID_P0
p4985
aVmTID_P1
p4986
aVmTEC_P0
p4987
aVmTEC_P1
p4988
aVuseLegacyError
p4989
aVmaxChgOneMIP
p4990
asg22
Nsg4978
g0
(g44
g2
Ntp4991
Rp4992
(dp4993
g21
I00
sg48
I01
sg23
I00
sg49
F-0.326
sbsg4979
g0
(g44
g2
Ntp4994
Rp4995
(dp4996
g21
I00
sg48
I01
sg23
I00
sg49
F0.618
sbsg4980
g0
(g44
g2
Ntp4997
Rp4998
(dp4999
g21
I00
sg48
I01
sg23
I00
sg49
F0.3
sbsg4981
g0
(g44
g2
Ntp5000
Rp5001
(dp5002
g21
I00
sg48
I01
sg23
I00
sg49
F-0.742
sbsg4982
g0
(g44
g2
Ntp5003
Rp5004
(dp5005
g21
I00
sg48
I01
sg23
I00
sg49
F0.202
sbsg4983
g0
(g44
g2
Ntp5006
Rp5007
(dp5008
g21
I00
sg48
I01
sg23
I00
sg49
F-1.026
sbsg4984
g0
(g44
g2
Ntp5009
Rp5010
(dp5011
g21
I00
sg48
I01
sg23
I00
sg49
F0.253
sbsg4985
g0
(g44
g2
Ntp5012
Rp5013
(dp5014
g21
I00
sg48
I01
sg23
I00
sg49
F-1.427
sbsg4986
g0
(g44
g2
Ntp5015
Rp5016
(dp5017
g21
I00
sg48
I01
sg23
I00
sg49
F0.433
sbsg4987
g0
(g44
g2
Ntp5018
Rp5019
(dp5020
g21
I00
sg48
I01
sg23
I00
sg49
F-1.885
sbsg4988
g0
(g44
g2
Ntp5021
Rp5022
(dp5023
g21
I00
sg48
I01
sg23
I00
sg49
F0.471
sbsg4989
g0
(g50
g2
Ntp5024
Rp5025
(dp5026
g21
I00
sg48
I01
sg23
I00
sg49
I00
sbsg4990
g0
(g44
g2
Ntp5027
Rp5028
(dp5029
g21
I00
sg48
I01
sg23
I00
sg49
F6000.0
sbsbsg24
V/cvmfs/cms.cern.ch/slc7_amd64_gcc10/cms/cmssw/CMSSW_12_4_9/python/RecoLocalTracker/SiStripRecHitConverter/StripCPEfromTrackAngle_cfi.py
p5030
sg26
I4
sg27
g4959
sbsVctppsBeamParametersFromLHCInfoESSource
p5031
g0
(g4281
g2
Ntp5032
Rp5033
(dp5034
g17
VCTPPSBeamParametersFromLHCInfoESSource
p5035
sg19
(lp5036
VlhcInfoLabel
p5037
aVbeamDivX45
p5038
aVbeamDivY45
p5039
aVbeamDivX56
p5040
aVbeamDivY56
p5041
aVvtxOffsetX45
p5042
aVvtxOffsetY45
p5043
aVvtxOffsetZ45
p5044
aVvtxOffsetX56
p5045
aVvtxOffsetY56
p5046
aVvtxOffsetZ56
p5047
aVvtxStddevX
p5048
aVvtxStddevY
p5049
aVvtxStddevZ
p5050
ag3294
asg21
I00
sg22
Nsg5037
g0
(g54
g2
Ntp5051
Rp5052
(dp5053
g21
I00
sg48
I01
sg23
I00
sg49
g66
sbsg23
I00
sg5038
g0
(g44
g2
Ntp5054
Rp5055
(dp5056
g21
I00
sg48
I01
sg23
I00
sg49
F0.1
sbsg5039
g0
(g44
g2
Ntp5057
Rp5058
(dp5059
g21
I00
sg48
I01
sg23
I00
sg49
F0.1
sbsg5040
g0
(g44
g2
Ntp5060
Rp5061
(dp5062
g21
I00
sg48
I01
sg23
I00
sg49
F0.1
sbsg5041
g0
(g44
g2
Ntp5063
Rp5064
(dp5065
g21
I00
sg48
I01
sg23
I00
sg49
F0.1
sbsg5042
g0
(g44
g2
Ntp5066
Rp5067
(dp5068
g21
I00
sg48
I01
sg23
I00
sg49
F0.01
sbsg5043
g0
(g44
g2
Ntp5069
Rp5070
(dp5071
g21
I00
sg48
I01
sg23
I00
sg49
F0.01
sbsg5044
g0
(g44
g2
Ntp5072
Rp5073
(dp5074
g21
I00
sg48
I01
sg23
I00
sg49
F0.01
sbsg5045
g0
(g44
g2
Ntp5075
Rp5076
(dp5077
g21
I00
sg48
I01
sg23
I00
sg49
F0.01
sbsg5046
g0
(g44
g2
Ntp5078
Rp5079
(dp5080
g21
I00
sg48
I01
sg23
I00
sg49
F0.01
sbsg5047
g0
(g44
g2
Ntp5081
Rp5082
(dp5083
g21
I00
sg48
I01
sg23
I00
sg49
F0.01
sbsg5048
g0
(g44
g2
Ntp5084
Rp5085
(dp5086
g21
I00
sg48
I01
sg23
I00
sg49
F0.02
sbsg5049
g0
(g44
g2
Ntp5087
Rp5088
(dp5089
g21
I00
sg48
I01
sg23
I00
sg49
F0.02
sbsg5050
g0
(g44
g2
Ntp5090
Rp5091
(dp5092
g21
I00
sg48
I01
sg23
I00
sg49
F0.02
sbsg3294
g0
(g54
g2
Ntp5093
Rp5094
(dp5095
g21
I00
sg48
I01
sg23
I00
sg49
g66
sbsg24
g512
sg26
I55
sg27
g5031
sbsVctppsInterpolatedOpticalFunctionsESSource
p5096
g0
(g4281
g2
Ntp5097
Rp5098
(dp5099
g17
VCTPPSInterpolatedOpticalFunctionsESSource
p5100
sg19
(lp5101
g5037
aVopticsLabel
p5102
ag3294
asg21
I00
sg22
Nsg5037
g0
(g54
g2
Ntp5103
Rp5104
(dp5105
g21
I00
sg48
I01
sg23
I00
sg49
g66
sbsg23
I01
sg5102
g0
(g54
g2
Ntp5106
Rp5107
(dp5108
g21
I00
sg48
I01
sg23
I00
sg49
g66
sbsg3294
g0
(g54
g2
Ntp5109
Rp5110
(dp5111
g21
I00
sg48
I01
sg23
I00
sg49
g66
sbsg24
g512
sg26
I55
sg27
g5096
sbsVhcal_db_producer
p5112
g0
(g4281
g2
Ntp5113
Rp5114
(dp5115
g17
VHcalDbProducer
p5116
sg19
(lp5117
Vdump
p5118
aVfile
p5119
asg21
I00
sg22
Nsg5118
g0
(g192
g193
(lp5120
g66
atp5121
Rp5122
(dp5123
g21
I00
sg48
I00
sg23
I00
sg223
I1
sbsg23
I00
sg5119
g0
(g54
g2
Ntp5124
Rp5125
(dp5126
g21
I00
sg48
I00
sg23
I00
sg49
g66
sbsg24
g512
sg26
I55
sg27
g5112
sbsVmultipleScatteringParametrisationMakerESProducer
p5127
g0
(g4281
g2
Ntp5128
Rp5129
(dp5130
g17
VMultipleScatteringParametrisationMakerESProducer
p5131
sg19
(lp5132
g3294
asg21
I00
sg22
Nsg3294
g0
(g54
g2
Ntp5133
Rp5134
(dp5135
g21
I00
sg48
I01
sg23
I00
sg49
g66
sbsg23
I00
sg24
g512
sg26
I55
sg27
g5127
sbsVsiPixelQualityESProducer
p5136
g0
(g4281
g2
Ntp5137
Rp5138
(dp5139
g17
VSiPixelQualityESProducer
p5140
sg19
(lp5141
VsiPixelQualityLabel
p5142
aVListOfRecordToMerge
p5143
asg21
I00
sg22
Nsg5142
g0
(g54
g2
Ntp5144
Rp5145
(dp5146
g21
I00
sg48
I01
sg23
I00
sg49
g66
sbsg23
I01
sg24
g512
sg26
I55
sg5143
g0
(g3371
g193
(lp5147
g0
(g79
g2
Ntp5148
Rp5149
(dp5150
g21
I00
sg48
I01
sg23
I00
sg19
(lp5151
g3377
ag3378
asg22
Nsg3377
g0
(g54
g2
Ntp5152
Rp5153
(dp5154
g21
I00
sg48
I01
sg23
I00
sg49
VSiPixelQualityFromDbRcd
p5155
sbsg3378
g0
(g54
g2
Ntp5156
Rp5157
(dp5158
g21
I00
sg48
I01
sg23
I00
sg49
g66
sbsbag0
(g79
g2
Ntp5159
Rp5160
(dp5161
g21
I00
sg48
I01
sg23
I00
sg19
(lp5162
g3377
ag3378
asg22
Nsg3377
g0
(g54
g2
Ntp5163
Rp5164
(dp5165
g21
I00
sg48
I01
sg23
I00
sg49
VSiPixelDetVOffRcd
p5166
sbsg3378
g0
(g54
g2
Ntp5167
Rp5168
(dp5169
g21
I00
sg48
I01
sg23
I00
sg49
g66
sbsbatp5170
Rp5171
(dp5172
g21
I00
sg48
I01
sg23
I00
sg223
I1
sbsg27
g5136
sbsVsiStripBackPlaneCorrectionDepESProducer
p5173
g0
(g4281
g2
Ntp5174
Rp5175
(dp5176
g17
VSiStripBackPlaneCorrectionDepESProducer
p5177
sg19
(lp5178
VLatencyRecord
p5179
aVBackPlaneCorrectionPeakMode
p5180
aVBackPlaneCorrectionDeconvMode
p5181
asg21
I00
sg22
Nsg5179
g0
(g79
g2
Ntp5182
Rp5183
(dp5184
g21
I00
sg48
I01
sg23
I00
sg19
(lp5185
g3377
ag3292
asg22
Nsg3377
g0
(g54
g2
Ntp5186
Rp5187
(dp5188
g21
I00
sg48
I01
sg23
I00
sg49
VSiStripLatencyRcd
p5189
sbsg3292
g0
(g54
g2
Ntp5190
Rp5191
(dp5192
g21
I00
sg48
I00
sg23
I00
sg49
g66
sbsbsg23
I00
sg5180
g0
(g79
g2
Ntp5193
Rp5194
(dp5195
g21
I00
sg48
I01
sg23
I00
sg19
(lp5196
g3377
ag3292
asg22
Nsg3377
g0
(g54
g2
Ntp5197
Rp5198
(dp5199
g21
I00
sg48
I01
sg23
I00
sg49
VSiStripBackPlaneCorrectionRcd
p5200
sbsg3292
g0
(g54
g2
Ntp5201
Rp5202
(dp5203
g21
I00
sg48
I00
sg23
I00
sg49
Vpeak
p5204
sbsbsg5181
g0
(g79
g2
Ntp5205
Rp5206
(dp5207
g21
I00
sg48
I01
sg23
I00
sg19
(lp5208
g3377
ag3292
asg22
Nsg3377
g0
(g54
g2
Ntp5209
Rp5210
(dp5211
g21
I00
sg48
I01
sg23
I00
sg49
g5200
sbsg3292
g0
(g54
g2
Ntp5212
Rp5213
(dp5214
g21
I00
sg48
I00
sg23
I00
sg49
Vdeconvolution
p5215
sbsbsg24
g512
sg26
I55
sg27
g5173
sbsVsiStripGainESProducer
p5216
g0
(g4281
g2
Ntp5217
Rp5218
(dp5219
g17
VSiStripGainESProducer
p5220
sg19
(lp5221
g3294
aVprintDebug
p5222
aVAutomaticNormalization
p5223
aVAPVGain
p5224
asg21
I00
sg22
Nsg3294
g0
(g54
g2
Ntp5225
Rp5226
(dp5227
g21
I00
sg48
I01
sg23
I00
sg49
g66
sbsg23
I00
sg5222
g0
(g50
g2
Ntp5228
Rp5229
(dp5230
g21
I00
sg48
I00
sg23
I00
sg49
I00
sbsg5223
g0
(g50
g2
Ntp5231
Rp5232
(dp5233
g21
I00
sg48
I01
sg23
I00
sg49
I00
sbsg5224
g0
(g3371
g193
(lp5234
g0
(g79
g2
Ntp5235
Rp5236
(dp5237
g21
I00
sg48
I01
sg23
I00
sg19
(lp5238
VRecord
p5239
aVLabel
p5240
aVNormalizationFactor
p5241
asg22
Nsg5239
g0
(g54
g2
Ntp5242
Rp5243
(dp5244
g21
I00
sg48
I01
sg23
I00
sg49
VSiStripApvGainRcd
p5245
sbsg5240
g0
(g54
g2
Ntp5246
Rp5247
(dp5248
g21
I00
sg48
I00
sg23
I00
sg49
g66
sbsg5241
g0
(g44
g2
Ntp5249
Rp5250
(dp5251
g21
I00
sg48
I00
sg23
I00
sg49
F1.0
sbsbag0
(g79
g2
Ntp5252
Rp5253
(dp5254
g21
I00
sg48
I01
sg23
I00
sg19
(lp5255
g5239
ag5240
ag5241
asg22
Nsg5239
g0
(g54
g2
Ntp5256
Rp5257
(dp5258
g21
I00
sg48
I01
sg23
I00
sg49
VSiStripApvGain2Rcd
p5259
sbsg5240
g0
(g54
g2
Ntp5260
Rp5261
(dp5262
g21
I00
sg48
I00
sg23
I00
sg49
g66
sbsg5241
g0
(g44
g2
Ntp5263
Rp5264
(dp5265
g21
I00
sg48
I00
sg23
I00
sg49
F1.0
sbsbatp5266
Rp5267
(dp5268
g21
I00
sg48
I01
sg23
I00
sg223
I1
sbsg24
g512
sg26
I55
sg27
g5216
sbsVsiStripLorentzAngleDepESProducer
p5269
g0
(g4281
g2
Ntp5270
Rp5271
(dp5272
g17
VSiStripLorentzAngleDepESProducer
p5273
sg19
(lp5274
g5179
aVLorentzAnglePeakMode
p5275
aVLorentzAngleDeconvMode
p5276
asg21
I00
sg22
Nsg5179
g0
(g79
g2
Ntp5277
Rp5278
(dp5279
g21
I00
sg48
I01
sg23
I00
sg19
(lp5280
g3377
ag3292
asg22
Nsg3377
g0
(g54
g2
Ntp5281
Rp5282
(dp5283
g21
I00
sg48
I01
sg23
I00
sg49
g5189
sbsg3292
g0
(g54
g2
Ntp5284
Rp5285
(dp5286
g21
I00
sg48
I00
sg23
I00
sg49
g66
sbsbsg23
I00
sg5275
g0
(g79
g2
Ntp5287
Rp5288
(dp5289
g21
I00
sg48
I01
sg23
I00
sg19
(lp5290
g3377
ag3292
asg22
Nsg3377
g0
(g54
g2
Ntp5291
Rp5292
(dp5293
g21
I00
sg48
I01
sg23
I00
sg49
VSiStripLorentzAngleRcd
p5294
sbsg3292
g0
(g54
g2
Ntp5295
Rp5296
(dp5297
g21
I00
sg48
I00
sg23
I00
sg49
g5204
sbsbsg5276
g0
(g79
g2
Ntp5298
Rp5299
(dp5300
g21
I00
sg48
I01
sg23
I00
sg19
(lp5301
g3377
ag3292
asg22
Nsg3377
g0
(g54
g2
Ntp5302
Rp5303
(dp5304
g21
I00
sg48
I01
sg23
I00
sg49
g5294
sbsg3292
g0
(g54
g2
Ntp5305
Rp5306
(dp5307
g21
I00
sg48
I00
sg23
I00
sg49
g5215
sbsbsg24
g512
sg26
I55
sg27
g5269
sbsVsiStripQualityESProducer
p5308
g0
(g4281
g2
Ntp5309
Rp5310
(dp5311
g17
VSiStripQualityESProducer
p5312
sg19
(lp5313
g3294
ag5143
aVReduceGranularity
p5314
aVThresholdForReducedGranularity
p5315
aVPrintDebugOutput
p5316
aVUseEmptyRunInfo
p5317
asg21
I00
sg22
Nsg3294
g0
(g54
g2
Ntp5318
Rp5319
(dp5320
g21
I00
sg48
I01
sg23
I00
sg49
g66
sbsg23
I01
sg5143
g0
(g3371
g193
(lp5321
g0
(g79
g2
Ntp5322
Rp5323
(dp5324
g21
I00
sg48
I01
sg23
I00
sg19
(lp5325
g3377
ag3378
asg22
Nsg3377
g0
(g54
g2
Ntp5326
Rp5327
(dp5328
g21
I00
sg48
I01
sg23
I00
sg49
VSiStripDetVOffRcd
p5329
sbsg3378
g0
(g54
g2
Ntp5330
Rp5331
(dp5332
g21
I00
sg48
I01
sg23
I00
sg49
g66
sbsbag0
(g79
g2
Ntp5333
Rp5334
(dp5335
g21
I00
sg48
I01
sg23
I00
sg19
(lp5336
g3377
ag3378
asg22
Nsg3377
g0
(g54
g2
Ntp5337
Rp5338
(dp5339
g21
I00
sg48
I01
sg23
I00
sg49
VSiStripDetCablingRcd
p5340
sbsg3378
g0
(g54
g2
Ntp5341
Rp5342
(dp5343
g21
I00
sg48
I01
sg23
I00
sg49
g66
sbsbag0
(g79
g2
Ntp5344
Rp5345
(dp5346
g21
I00
sg48
I01
sg23
I00
sg19
(lp5347
g3377
ag3378
asg22
Nsg3377
g0
(g54
g2
Ntp5348
Rp5349
(dp5350
g21
I00
sg48
I01
sg23
I00
sg49
VRunInfoRcd
p5351
sbsg3378
g0
(g54
g2
Ntp5352
Rp5353
(dp5354
g21
I00
sg48
I01
sg23
I00
sg49
g66
sbsbag0
(g79
g2
Ntp5355
Rp5356
(dp5357
g21
I00
sg48
I01
sg23
I00
sg19
(lp5358
g3377
ag3378
asg22
Nsg3377
g0
(g54
g2
Ntp5359
Rp5360
(dp5361
g21
I00
sg48
I01
sg23
I00
sg49
VSiStripBadChannelRcd
p5362
sbsg3378
g0
(g54
g2
Ntp5363
Rp5364
(dp5365
g21
I00
sg48
I01
sg23
I00
sg49
g66
sbsbag0
(g79
g2
Ntp5366
Rp5367
(dp5368
g21
I00
sg48
I01
sg23
I00
sg19
(lp5369
g3377
ag3378
asg22
Nsg3377
g0
(g54
g2
Ntp5370
Rp5371
(dp5372
g21
I00
sg48
I01
sg23
I00
sg49
VSiStripBadFiberRcd
p5373
sbsg3378
g0
(g54
g2
Ntp5374
Rp5375
(dp5376
g21
I00
sg48
I01
sg23
I00
sg49
g66
sbsbag0
(g79
g2
Ntp5377
Rp5378
(dp5379
g21
I00
sg48
I01
sg23
I00
sg19
(lp5380
g3377
ag3378
asg22
Nsg3377
g0
(g54
g2
Ntp5381
Rp5382
(dp5383
g21
I00
sg48
I01
sg23
I00
sg49
VSiStripBadModuleRcd
p5384
sbsg3378
g0
(g54
g2
Ntp5385
Rp5386
(dp5387
g21
I00
sg48
I01
sg23
I00
sg49
g66
sbsbag0
(g79
g2
Ntp5388
Rp5389
(dp5390
g21
I00
sg48
I01
sg23
I00
sg19
(lp5391
g3377
ag3378
asg22
Nsg3377
g0
(g54
g2
Ntp5392
Rp5393
(dp5394
g21
I00
sg48
I01
sg23
I00
sg49
VSiStripBadStripRcd
p5395
sbsg3378
g0
(g54
g2
Ntp5396
Rp5397
(dp5398
g21
I00
sg48
I01
sg23
I00
sg49
g66
sbsbatp5399
Rp5400
(dp5401
g21
I00
sg48
I01
sg23
I00
sg223
I1
sbsg5314
g0
(g50
g2
Ntp5402
Rp5403
(dp5404
g21
I00
sg48
I01
sg23
I00
sg49
I00
sbsg5315
g0
(g44
g2
Ntp5405
Rp5406
(dp5407
g21
I00
sg48
I01
sg23
I00
sg49
F0.3
sbsg5316
g0
(g50
g2
Ntp5408
Rp5409
(dp5410
g21
I00
sg48
I01
sg23
I00
sg49
I00
sbsg5317
g0
(g50
g2
Ntp5411
Rp5412
(dp5413
g21
I00
sg48
I01
sg23
I00
sg49
I00
sbsg24
g512
sg26
I55
sg27
g5308
sbsVsistripconn
p5414
g0
(g4281
g2
Ntp5415
Rp5416
(dp5417
g17
VSiStripConnectivity
p5418
sg19
(lp5419
sg21
I00
sg22
Nsg23
I00
sg24
g512
sg26
I55
sg27
g5414
sbsVstripCPEESProducer
p5420
g0
(g4281
g2
Ntp5421
Rp5422
(dp5423
g17
g4963
sg19
(lp5424
g4946
ag4965
ag4966
asg21
I00
sg22
Nsg4946
g0
(g54
g2
Ntp5425
Rp5426
(dp5427
g21
I00
sg48
I01
sg23
I00
sg49
VstripCPE
p5428
sbsg23
I00
sg4965
g0
(g54
g2
Ntp5429
Rp5430
(dp5431
g21
I00
sg48
I01
sg23
I00
sg49
VSimpleStripCPE
p5432
sbsg4966
g0
(g79
g2
Ntp5433
Rp5434
(dp5435
g21
I00
sg48
I01
sg23
I00
sg19
(lp5436
sg22
Nsbsg24
g512
sg26
I55
sg27
g5420
sbsVTransientTrackBuilderESProducer
p5437
g0
(g4281
g2
Ntp5438
Rp5439
(dp5440
g17
g5437
sg19
(lp5441
g4946
asg21
I00
sg22
Nsg4946
g0
(g54
g2
Ntp5442
Rp5443
(dp5444
g21
I00
sg48
I01
sg23
I00
sg49
VTransientTrackBuilder
p5445
sbsg23
I00
sg24
g512
sg26
I55
sg27
g5437
sbssV_Process__esprefers
p5446
(dp5447
Ves_prefer_hcalHardcode
p5448
g0
(cFWCore.ParameterSet.Modules
ESPrefer
p5449
g2
Ntp5450
Rp5451
(dp5452
g17
g3589
sg19
(lp5453
sg21
I00
sg22
Nsg23
I00
sg24
g512
sg26
I91
sV_targetLabel
p5454
g3585
sg27
g5448
sbssV_Process__aliases
p5455
(dp5456
sV_Process__psets
p5457
(dp5458
Voptions
p5459
g0
(g79
g2
Ntp5460
Rp5461
(dp5462
g21
I00
sg48
I00
sg23
I01
sg19
(lp5463
VnumberOfThreads
p5464
aVnumberOfStreams
p5465
aVnumberOfConcurrentRuns
p5466
aVnumberOfConcurrentLuminosityBlocks
p5467
aVeventSetup
p5468
aVaccelerators
p5469
aVwantSummary
p5470
aVfileMode
p5471
aVforceEventSetupCacheClearOnNewRun
p5472
aVthrowIfIllegalParameter
p5473
aVprintDependencies
p5474
aVdeleteNonConsumedUnscheduledModules
p5475
aVsizeOfStackForThreadsInKB
p5476
aVRethrow
p5477
aVSkipEvent
p5478
aVFailPath
p5479
aVIgnoreCompletely
p5480
aVcanDeleteEarly
p5481
aVdumpOptions
p5482
aVallowUnscheduled
p5483
aVemptyRunLumiMode
p5484
aVmakeTriggerResults
p5485
asg22
Nsg5464
g0
(g1674
g2
Ntp5486
Rp5487
(dp5488
g21
I00
sg48
I00
sg23
I00
sg49
I1
sbsg5465
g0
(g1674
g2
Ntp5489
Rp5490
(dp5491
g21
I00
sg48
I00
sg23
I00
sg49
I0
sbsg5466
g0
(g1674
g2
Ntp5492
Rp5493
(dp5494
g21
I00
sg48
I00
sg23
I00
sg49
I1
sbsg5467
g0
(g1674
g2
Ntp5495
Rp5496
(dp5497
g21
I00
sg48
I00
sg23
I00
sg49
I0
sbsg5468
g0
(g79
g2
Ntp5498
Rp5499
(dp5500
g21
I00
sg48
I00
sg23
I00
sg19
(lp5501
VnumberOfConcurrentIOVs
p5502
aVforceNumberOfConcurrentIOVs
p5503
asg22
Nsg5502
g0
(g1674
g2
Ntp5504
Rp5505
(dp5506
g21
I00
sg48
I00
sg23
I00
sg49
I0
sbsg5503
g0
(g79
g2
Ntp5507
Rp5508
(dp5509
g21
I00
sg48
I00
sg23
I00
sg19
(lp5510
sg22
g0
(cFWCore.ParameterSet.Types
_RequiredParameter
p5511
g2
Ntp5512
Rp5513
(dp5514
g21
I00
sg48
I00
sg23
I00
sg228
g1674
sg229
Nsbsbsbsg5469
g0
(g192
g193
(lp5515
V*
p5516
atp5517
Rp5518
(dp5519
g21
I00
sg48
I00
sg23
I00
sg223
I1
sbsg5470
g0
(g50
g2
Ntp5520
Rp5521
(dp5522
g21
I00
sg48
I00
sg23
I00
sg49
I00
sbsg5471
g0
(g54
g2
Ntp5523
Rp5524
(dp5525
g21
I00
sg48
I00
sg23
I00
sg49
VFULLMERGE
p5526
sbsg5472
g0
(g50
g2
Ntp5527
Rp5528
(dp5529
g21
I00
sg48
I00
sg23
I00
sg49
I00
sbsg5473
g0
(g50
g2
Ntp5530
Rp5531
(dp5532
g21
I00
sg48
I00
sg23
I00
sg49
I01
sbsg5474
g0
(g50
g2
Ntp5533
Rp5534
(dp5535
g21
I00
sg48
I00
sg23
I00
sg49
I00
sbsg5475
g0
(g50
g2
Ntp5536
Rp5537
(dp5538
g21
I00
sg48
I00
sg23
I00
sg49
I01
sbsg5476
g0
(g224
g2
Ntp5539
Rp5540
(dp5541
g21
I00
sg48
I00
sg23
I00
sg228
g1674
sg229
Nsbsg5477
g0
(g192
g193
(lp5542
tp5543
Rp5544
(dp5545
g21
I00
sg48
I00
sg23
I00
sg223
I1
sbsg5478
g0
(g192
g193
(lp5546
tp5547
Rp5548
(dp5549
g21
I00
sg48
I00
sg23
I00
sg223
I1
sbsg5479
g0
(g192
g193
(lp5550
tp5551
Rp5552
(dp5553
g21
I00
sg48
I00
sg23
I00
sg223
I1
sbsg5480
g0
(g192
g193
(lp5554
tp5555
Rp5556
(dp5557
g21
I00
sg48
I00
sg23
I00
sg223
I1
sbsg5481
g0
(g192
g193
(lp5558
tp5559
Rp5560
(dp5561
g21
I00
sg48
I00
sg23
I00
sg223
I1
sbsg5482
g0
(g50
g2
Ntp5562
Rp5563
(dp5564
g21
I00
sg48
I00
sg23
I00
sg49
I00
sbsg5483
g0
(cFWCore.ParameterSet.Types
_ObsoleteParameter
p5565
g2
Ntp5566
Rp5567
(dp5568
g21
I00
sg48
I00
sg23
I00
sg228
g50
sg229
Nsbsg5484
g0
(g5565
g2
Ntp5569
Rp5570
(dp5571
g21
I00
sg48
I00
sg23
I00
sg228
g54
sg229
Nsbsg5485
g0
(g5565
g2
Ntp5572
Rp5573
(dp5574
g21
I00
sg48
I00
sg23
I00
sg228
g50
sg229
Nsbsg27
g5459
sbsVmaxLuminosityBlocks
p5575
g0
(g79
g2
Ntp5576
Rp5577
(dp5578
g21
I00
sg48
I00
sg23
I00
sg19
(lp5579
Vinput
p5580
asg22
Nsg5580
g0
(g1764
g2
Ntp5581
Rp5582
(dp5583
g21
I00
sg48
I00
sg23
I00
sg49
I-1
sbsg27
g5575
sbsVmaxEvents
p5584
g0
(g79
g2
Ntp5585
Rp5586
(dp5587
g21
I00
sg48
I00
sg23
I01
sg19
(lp5588
g5580
ag2873
asg22
Nsg5580
g0
(g1764
g2
Ntp5589
Rp5590
(dp5591
g21
I00
sg48
I00
sg23
I00
sg49
I10
sbsg2873
g0
(g224
g2
Ntp5592
Rp5593
(dp5594
g21
I00
sg48
I00
sg23
I00
sg228
g0
(cFWCore.ParameterSet.Types
_AllowedParameterTypes
p5595
g2
Ntp5596
Rp5597
(dp5598
V_AllowedParameterTypes__types
p5599
(g1764
g79
tp5600
sV_AllowedParameterTypes__value
p5601
NsV__name__
p5602
Vallowed(cms.int32,cms.PSet)
p5603
sbsg229
Nsbsg27
g5584
sbsVnanoDQMIO_perLSoutput
p5604
g0
(g79
g2
Ntp5605
Rp5606
(dp5607
g21
I00
sg48
I01
sg23
I00
sg19
(lp5608
g2912
asg22
Nsg2912
g0
(g192
g193
(lp5609
g2923
ag2924
ag2925
ag2926
ag2927
ag2928
ag2929
ag2930
ag2931
ag2932
ag2933
ag2934
ag2935
ag2936
ag2937
ag2938
ag2939
ag2940
ag2941
ag2942
ag2943
ag2944
ag2945
ag2946
ag2947
ag2948
ag2949
ag2950
ag2951
ag2952
atp5610
Rp5611
(dp5612
g21
I00
sg48
I00
sg23
I00
sg223
I1
sbsg27
g5604
sbsVCondDB
p5613
g0
(g79
g2
Ntp5614
Rp5615
(dp5616
g21
I00
sg48
I01
sg23
I00
sg19
(lp5617
g3327
ag3328
asg22
Nsg3327
g0
(g79
g2
Ntp5618
Rp5619
(dp5620
g21
I00
sg48
I01
sg23
I00
sg19
(lp5621
g3343
ag3344
ag3345
ag3346
ag3347
asg22
Nsg3343
g0
(g54
g2
Ntp5622
Rp5623
(dp5624
g21
I00
sg48
I00
sg23
I00
sg49
g66
sbsg3344
g0
(g1764
g2
Ntp5625
Rp5626
(dp5627
g21
I00
sg48
I00
sg23
I00
sg49
I0
sbsg3345
g0
(g54
g2
Ntp5628
Rp5629
(dp5630
g21
I00
sg48
I00
sg23
I00
sg49
g66
sbsg3346
g0
(g1764
g2
Ntp5631
Rp5632
(dp5633
g21
I00
sg48
I00
sg23
I00
sg49
I0
sbsg3347
g0
(g1764
g2
Ntp5634
Rp5635
(dp5636
g21
I00
sg48
I00
sg23
I00
sg49
I0
sbsbsg3328
g0
(g54
g2
Ntp5637
Rp5638
(dp5639
g21
I00
sg48
I01
sg23
I00
sg49
g66
sbsg27
g5613
sbsg3599
g3650
sVcalibratedEgammaPatSettings
p5640
g0
(g79
g2
Ntp5641
Rp5642
(dp5643
g21
I00
sg48
I01
sg23
I00
sg19
(lp5644
g34
ag35
ag36
ag37
ag38
ag39
asg22
Nsg34
g0
(g44
g2
Ntp5645
Rp5646
(dp5647
g21
I00
sg48
I01
sg23
I00
sg49
F5.0
sbsg35
g0
(g50
g2
Ntp5648
Rp5649
(dp5650
g21
I00
sg48
I01
sg23
I00
sg49
I01
sbsg36
g0
(g54
g2
Ntp5651
Rp5652
(dp5653
g21
I00
sg48
I01
sg23
I01
sg49
g58
sbsg37
g0
(g59
g2
Ntp5654
Rp5655
(dp5656
g21
I00
sg48
I01
sg23
I01
sg63
g249
sg65
g250
sg67
g66
sbsg38
g0
(g59
g2
Ntp5657
Rp5658
(dp5659
g21
I00
sg48
I01
sg23
I01
sg63
g254
sg65
g255
sg67
g66
sbsg39
g0
(g50
g2
Ntp5660
Rp5661
(dp5662
g21
I00
sg48
I01
sg23
I00
sg49
I01
sbsg27
g5640
sbsVcalibratedEgammaSettings
p5663
g0
(g79
g2
Ntp5664
Rp5665
(dp5666
g21
I00
sg48
I01
sg23
I01
sg19
(lp5667
g34
ag35
ag36
ag37
ag38
ag39
asg22
Nsg34
g0
(g44
g2
Ntp5668
Rp5669
(dp5670
g21
I00
sg48
I01
sg23
I00
sg49
F5.0
sbsg35
g0
(g50
g2
Ntp5671
Rp5672
(dp5673
g21
I00
sg48
I01
sg23
I00
sg49
I01
sbsg36
g0
(g54
g2
Ntp5674
Rp5675
(dp5676
g21
I00
sg48
I01
sg23
I01
sg49
g58
sbsg37
g0
(g59
g2
Ntp5677
Rp5678
(dp5679
g21
I00
sg48
I01
sg23
I00
sg63
g64
sg65
g66
sg67
g66
sbsg38
g0
(g59
g2
Ntp5680
Rp5681
(dp5682
g21
I00
sg48
I01
sg23
I00
sg63
g71
sg65
g66
sg67
g66
sbsg39
g0
(g50
g2
Ntp5683
Rp5684
(dp5685
g21
I00
sg48
I01
sg23
I00
sg49
I01
sbsg27
g5663
sbsg191
g81
ssV_Process__vpsets
p5686
(dp5687
sV_cloneToObjectDict
p5688
(dp5689
L139699314957712L
g5461
sL139699320722912L
g0
(g79
g2
Ntp5690
Rp5691
(dp5692
g21
I00
sg48
I00
sg23
I01
sg19
(lp5693
g5580
ag2873
asg22
Nsg5580
g0
(g224
g2
Ntp5694
Rp5695
(dp5696
g21
I00
sg48
I00
sg23
I00
sg228
g1764
sg229
Nsbsg2873
g0
(g224
g2
Ntp5697
Rp5698
(dp5699
g21
I00
sg48
I00
sg23
I00
sg228
g0
(g5595
g2
Ntp5700
Rp5701
(dp5702
g5599
(g1764
g79
tp5703
sg5601
Nsg5602
Vallowed(cms.int32,cms.PSet)
p5704
sbsg229
Nsbsg27
NsbsL139699320722576L
g5577
sL139699320723536L
g522
sL139699320723248L
g5586
sL139699317599152L
g4283
sL139699316647200L
g4327
sL139699316648208L
g4343
sL139699316625712L
g4348
sL139699316626000L
g4356
sL139699315241840L
g4361
sL139699315524128L
g4369
sL139699316627776L
g4403
sL139699316647680L
g4411
sL139699316628544L
g4416
sL139699316629024L
g4424
sL139699316629264L
g4432
sL139699315525712L
g4442
sL139699316625664L
g4447
sL139699316649312L
g4452
sL139699315523840L
g4460
sL139699317598624L
g4465
sL139699315524944L
g4476
sL139699317598864L
g4485
sL139699315241552L
g4494
sL139699315242416L
g3265
sL139699315861632L
g4502
sL139699315244192L
g4513
sL139699315244000L
g4522
sL139699315243520L
g4531
sL139699315243952L
g4548
sL139699315243856L
g4585
sL139699315244528L
g4615
sL139699316648304L
g4634
sL139699315525856L
g4646
sL139699315527584L
g4663
sL139699315524416L
g4678
sL139699314951648L
g4687
sL139699314950784L
g4707
sL139699314949088L
g3287
sL139699314951408L
g4715
sL139699314950928L
g4723
sL139699479574176L
g4731
sL139699314947888L
g4743
sL139699314948368L
g4760
sL139699314948416L
g4776
sL139699314946448L
g4791
sL139699479575568L
g4800
sL139699479574080L
g4812
sL139699479572736L
g3312
sL139699317551744L
g5606
sL139699317554960L
g15
sL139699317114720L
g4883
sL139699317115488L
g4902
sL139699313106512L
g4918
sL139699316067632L
g5615
sL139699479991632L
g4926
sL139699479965760L
g4935
sL139699316065808L
g3323
sL139699313106464L
g3650
sL139699313105552L
g3418
sL139699312724432L
g4943
sL139699312723568L
g4961
sL139699312719520L
g5033
sL139699312720048L
g5098
sL139699313174320L
g3587
sL139699313174560L
g5451
sL139699479991872L
g5114
sL139699312738656L
g5129
sL139699312725296L
g5138
sL139699312696384L
g5175
sL139699312694704L
g5218
sL139699312695472L
g5271
sL139699312739184L
g5310
sL139699313152496L
g5416
sL139699312722512L
g5422
sL139699312720288L
g543
sL139699312870544L
g597
sL139699312871120L
g1681
sL139699312872368L
g1699
sL139699312872512L
g1771
sL139699312873136L
g1787
sL139699312518048L
g2017
sL139699312520112L
g5642
sL139699312519872L
g5665
sL139699312560832L
g30
sL139699312560880L
g233
sL139699312560976L
g272
sL139699312598608L
g307
sL139699312621072L
g342
sL139699312560784L
g81
sL139699312224048L
g2080
sL139699312224192L
g5439
sL139699312225104L
g2213
sL139699312247088L
g2353
sL139699312248720L
g2442
sL139699312285344L
g2479
sL139699312286880L
g2508
sL139699312286112L
g369
sL139699312256192L
g2616
sL139699312256000L
g2629
sL139699312258112L
g411
sL139699312258784L
g2538
sL139699312258880L
g2642
sL139699312720096L
g2576
ssV_Process__InExtendCall
p5705
I00
sV_Process__partialschedules
p5706
(dp5707
sV_Process__isStrict
p5708
I00
sV_Process__modifiers
p5709
(g0
(cFWCore.ParameterSet.Config
ModifierChain
p5710
g2
Ntp5711
Rp5712
(dp5713
V_ModifierChain__chosen
p5714
I01
sV_ModifierChain__chain
p5715
(g0
(g5710
g2
Ntp5716
Rp5717
(dp5718
g5714
I01
sg5715
(g0
(g5710
g2
Ntp5719
Rp5720
(dp5721
g5714
I01
sg5715
(g0
(g5710
g2
Ntp5722
Rp5723
(dp5724
g5714
I01
sg5715
(g0
(g5710
g2
Ntp5725
Rp5726
(dp5727
g5714
I01
sg5715
(g0
(g5710
g2
Ntp5728
Rp5729
(dp5730
g5714
I01
sg5715
(g0
(cFWCore.ParameterSet.Config
Modifier
p5731
g2
Ntp5732
Rp5733
(dp5734
V_Modifier__processModifiers
p5735
(lp5736
sV_Modifier__chosen
p5737
I01
sbg0
(g5731
g2
Ntp5738
Rp5739
(dp5740
g5735
(lp5741
sg5737
I01
sbg0
(g5731
g2
Ntp5742
Rp5743
(dp5744
g5735
(lp5745
sg5737
I01
sbg0
(g5731
g2
Ntp5746
Rp5747
(dp5748
g5735
(lp5749
sg5737
I01
sbtp5750
sbg0
(g5731
g2
Ntp5751
Rp5752
(dp5753
g5735
(lp5754
sg5737
I01
sbg0
(g5731
g2
Ntp5755
Rp5756
(dp5757
g5735
(lp5758
sg5737
I01
sbg0
(g5731
g2
Ntp5759
Rp5760
(dp5761
g5735
(lp5762
sg5737
I01
sbg0
(g5731
g2
Ntp5763
Rp5764
(dp5765
g5735
(lp5766
sg5737
I01
sbg0
(g5731
g2
Ntp5767
Rp5768
(dp5769
g5735
(lp5770
sg5737
I01
sbg0
(g5731
g2
Ntp5771
Rp5772
(dp5773
g5735
(lp5774
sg5737
I01
sbg0
(g5731
g2
Ntp5775
Rp5776
(dp5777
g5735
(lp5778
sg5737
I01
sbtp5779
sbg0
(g5731
g2
Ntp5780
Rp5781
(dp5782
g5735
(lp5783
sg5737
I01
sbg0
(g5731
g2
Ntp5784
Rp5785
(dp5786
g5735
(lp5787
sg5737
I01
sbg0
(g5731
g2
Ntp5788
Rp5789
(dp5790
g5735
(lp5791
sg5737
I01
sbg0
(g5731
g2
Ntp5792
Rp5793
(dp5794
g5735
(lp5795
sg5737
I01
sbg0
(g5731
g2
Ntp5796
Rp5797
(dp5798
g5735
(lp5799
sg5737
I01
sbg0
(g5731
g2
Ntp5800
Rp5801
(dp5802
g5735
(lp5803
sg5737
I01
sbg0
(g5731
g2
Ntp5804
Rp5805
(dp5806
g5735
(lp5807
sg5737
I01
sbg0
(g5731
g2
Ntp5808
Rp5809
(dp5810
g5735
(lp5811
sg5737
I01
sbg0
(g5731
g2
Ntp5812
Rp5813
(dp5814
g5735
(lp5815
sg5737
I01
sbg0
(g5731
g2
Ntp5816
Rp5817
(dp5818
g5735
(lp5819
sg5737
I01
sbtp5820
sbg0
(g5731
g2
Ntp5821
Rp5822
(dp5823
g5735
(lp5824
sg5737
I01
sbg0
(g5731
g2
Ntp5825
Rp5826
(dp5827
g5735
(lp5828
sg5737
I01
sbg0
(g5731
g2
Ntp5829
Rp5830
(dp5831
g5735
(lp5832
sg5737
I01
sbg0
(g5731
g2
Ntp5833
Rp5834
(dp5835
g5735
(lp5836
sg5737
I01
sbg0
(g5731
g2
Ntp5837
Rp5838
(dp5839
g5735
(lp5840
sg5737
I01
sbg0
(g5731
g2
Ntp5841
Rp5842
(dp5843
g5735
(lp5844
sg5737
I01
sbg0
(g5731
g2
Ntp5845
Rp5846
(dp5847
g5735
(lp5848
sg5737
I01
sbg0
(g5731
g2
Ntp5849
Rp5850
(dp5851
g5735
(lp5852
sg5737
I01
sbg0
(g5731
g2
Ntp5853
Rp5854
(dp5855
g5735
(lp5856
sg5737
I01
sbg0
(g5731
g2
Ntp5857
Rp5858
(dp5859
g5735
(lp5860
sg5737
I01
sbtp5861
sbtp5862
sbg0
(g5731
g2
Ntp5863
Rp5864
(dp5865
g5735
(lp5866
sg5737
I01
sbg0
(g5731
g2
Ntp5867
Rp5868
(dp5869
g5735
(lp5870
sg5737
I01
sbtp5871
sbtp5872
sV_Process__accelerators
p5873
(dp5874
sg5459
g5461
sg5575
g5577
sg2659
g2662
sg519
g522
sVsource
p5875
g497
sg499
g497
sg5584
g5586
sg4280
g4283
sg4325
g4327
sg4341
g4343
sg4346
g4348
sg4354
g4356
sg4359
g4361
sg4367
g4369
sg4401
g4403
sg4409
g4411
sg4414
g4416
sg4422
g4424
sg4430
g4432
sg4440
g4442
sg4445
g4447
sg4450
g4452
sg4458
g4460
sg4463
g4465
sg4474
g4476
sg4483
g4485
sg4492
g4494
sg3262
g3265
sg4500
g4502
sg4511
g4513
sg4520
g4522
sg4529
g4531
sg4546
g4548
sg4583
g4585
sg4613
g4615
sg4632
g4634
sg4644
g4646
sg4661
g4663
sg4676
g4678
sg4685
g4687
sg4705
g4707
sg3285
g3287
sg4713
g4715
sg4721
g4723
sg4729
g4731
sg4741
g4743
sg4758
g4760
sg4774
g4776
sg4789
g4791
sg4798
g4800
sg4810
g4812
sg2905
g2907
sg3310
g3312
sg2965
g2967
sg5604
g5606
sg12
g15
sg4881
g4883
sg4900
g4902
sg4916
g4918
sg5613
g5615
sg4924
g4926
sg4933
g4935
sg3321
g3323
sg3599
g3650
sg3416
g3418
sg4941
g4943
sg4959
g4961
sg5031
g5033
sg5096
g5098
sg3585
g3587
sg5448
g5451
sg5112
g5114
sg5127
g5129
sg5136
g5138
sg5173
g5175
sg5216
g5218
sg5269
g5271
sg5308
g5310
sg5414
g5416
sg5420
g5422
sg3250
g3252
sg541
g543
sg595
g597
sg1679
g1681
sg1697
g1699
sg1769
g1771
sg1785
g1787
sg2015
g2017
sg5640
g5642
sg5663
g5665
sg28
g30
sg231
g233
sg270
g272
sg305
g307
sg340
g342
sg191
g81
sg2078
g2080
sg5437
g5439
sg2211
g2213
sg2351
g2353
sg2440
g2442
sg2477
g2479
sg2506
g2508
sg367
g369
sg2613
g2616
sg2627
g2629
sg409
g411
sg2536
g2538
sg2640
g2642
sg2573
g2576
sb.